;;; Segment .textbss (00401000)
00401000 00 00 00 00 00 00 00 00 00 00 00 00 00 00 00 00 ................
; ...
;;; Segment .text (00411000)
00411000 CC CC CC CC CC E9 86 24 00 00                   .......$..     

;; fn0041100A: 0041100A
fn0041100A proc
	jmp	00415418
0041100F                                              E9                .
00411010 34 44 00 00 E9 F7 2E 00 00 E9 52 10 00 00       4D........R... 

;; fn0041101E: 0041101E
fn0041101E proc
	jmp	004154E0

;; fn00411023: 00411023
fn00411023 proc
	jmp	004154B0
00411028                         E9 C3 44 00 00 E9 2F 10         ..D.../.
00411030 00 00 E9 81 43 00 00                            ....C..        

;; fn00411037: 00411037
fn00411037 proc
	jmp	004143F0
0041103C                                     E9 1F 17 00             ....
00411040 00 E9 FA 16 00 00 E9 45 44 00 00 E9 60 42 00 00 .......ED...`B..
00411050 E9 5B 2F 00 00                                  .[/..          

;; fn00411055: 00411055
fn00411055 proc
	jmp	00415424

;; fn0041105A: 0041105A
fn0041105A proc
	jmp	004153CA
0041105F                                              E9                .
00411060 4C 44 00 00                                     LD..           

;; fn00411064: 00411064
fn00411064 proc
	jmp	004153D0
00411069                            E9 32 12 00 00                .2... 

;; fn0041106E: 0041106E
fn0041106E proc
	jmp	004140B0

;; fn00411073: 00411073
fn00411073 proc
	jmp	00415250
00411078                         E9 D3 19 00 00                  .....  

;; fn0041107D: 0041107D
fn0041107D proc
	jmp	004117C0

;; fn00411082: 00411082
fn00411082 proc
	jmp	00413720
00411087                      E9 94 2E 00 00 E9 85 42 00        .......B.
00411090 00 E9 98 42 00 00 E9 35 44 00 00 E9 90 18 00 00 ...B...5D.......

;; fn004110A0: 004110A0
fn004110A0 proc
	jmp	00415382
004110A5                E9 E6 31 00 00 E9 31 44 00 00 E9      ..1...1D...
004110B0 9C 2E 00 00 E9 C5 43 00 00                      ......C..      

;; fn004110B9: 004110B9
fn004110B9 proc
	jmp	004153A6
004110BE                                           E9 83               ..
004110C0 42 00 00 E9 C8 2C 00 00                         B....,..       

;; fn004110C8: 004110C8
fn004110C8 proc
	jmp	00413460

;; fn004110CD: 004110CD
fn004110CD proc
	jmp	00415310

;; fn004110D2: 004110D2
fn004110D2 proc
	jmp	00415376
004110D7                      E9 90 43 00 00 E9 74 0F 00        ..C...t..
004110E0 00                                              .              

;; fn004110E1: 004110E1
fn004110E1 proc
	jmp	004140A0
004110E6                   E9 F5 1D 00 00 E9 F0 15 00 00       ..........
004110F0 E9 1B 33 00 00                                  ..3..          

;; fn004110F5: 004110F5
fn004110F5 proc
	jmp	00412AC0
004110FA                               E9 4F 43 00 00 E9           .OC...
00411100 CC 20 00 00 E9 01 42 00 00 E9 86 42 00 00 E9 AD . ....B....B....
00411110 15 00 00 E9 A8 43 00 00 E9 D3 43 00 00 E9 12 42 .....C....C....B
00411120 00 00 E9 25 42 00 00 E9 34 43 00 00 E9 93 42 00 ...%B...4C....B.
00411130 00 E9 2A 2F 00 00                               ..*/..         

;; fn00411136: 00411136
fn00411136 proc
	jmp	00414EC0

;; fn0041113B: 0041113B
fn0041113B proc
	jmp	00412230
00411140 E9 AB 11 00 00                                  .....          

;; fn00411145: 00411145
fn00411145 proc
	jmp	004142A0
0041114A                               E9 61 11 00 00 E9           .a....
00411150 DC 23 00 00                                     .#..           

;; fn00411154: 00411154
fn00411154 proc
	jmp	004119C0
00411159                            E9 D2 2B 00 00 E9 0F          ..+....
00411160 43 00 00 E9 08 32 00 00 E9 53 1E 00 00 E9 4E 20 C....2...S....N 
00411170 00 00 E9 59 43 00 00 E9 08 43 00 00 E9 EF 41 00 ...YC....C....A.
00411180 00 E9 E1 0E 00 00 E9 4B 42 00 00 E9 C0 31 00 00 .......KB....1..

;; fn00411190: 00411190
fn00411190 proc
	jmp	00413C50
00411195                E9 56 43 00 00 E9 67 42 00 00 E9      .VC...gB...
004111A0 EC 25 00 00 E9 A7 32 00 00 E9 DC 42 00 00 E9 2D .%....2....B...-
004111B0 2E 00 00 E9 84 42 00 00 E9 01 42 00 00 E9 7E 41 .....B....B...~A
004111C0 00 00 E9 39 2D 00 00                            ...9-..        

;; fn004111C7: 004111C7
fn004111C7 proc
	jmp	00411830
004111CC                                     E9 CF 23 00             ..#.
004111D0 00 E9 EA 42 00 00 E9 65 2D 00 00 E9 86 42 00 00 ...B...e-....B..

;; fn004111E0: 004111E0
fn004111E0 proc
	jmp	004153B2
004111E5                E9 E6 42 00 00 E9 9F 41 00 00 E9      ..B....A...
004111F0 6A 41 00 00 E9 37 42 00 00                      jA...7B..      

;; fn004111F9: 004111F9
fn004111F9 proc
	jmp	00413030
004111FE                                           E9 DD               ..
00411200 20 00 00                                         ..            

;; fn00411203: 00411203
fn00411203 proc
	jmp	00411790
00411208                         E9 E3 2D 00 00 E9 DC 41         ..-....A
00411210 00 00 E9 7F 42 00 00 E9 B4 22 00 00 E9 AF 40 00 ....B...."....@.
00411220 00 E9 35 0E 00 00 E9 BD 41 00 00 E9 D0 2D 00 00 ..5.....A....-..

;; fn00411230: 00411230
fn00411230 proc
	jmp	00413E60

;; fn00411235: 00411235
fn00411235 proc
	jmp	004154E0
0041123A                               E9 F7 41 00 00              ..A..

;; fn0041123F: 0041123F
fn0041123F proc
	jmp	004118B0
00411244             E9 17 2D 00 00 E9 C4 41 00 00 E9 4D     ..-....A...M
00411250 22 00 00 E9 28 2D 00 00                         "...(-..       

;; fn00411258: 00411258
fn00411258 proc
	jmp	004154B0
0041125D                                        E9 1E 27              ..'
00411260 00 00 E9 F9 25 00 00 E9 A0 41 00 00 E9 3F 0E 00 ....%....A...?..
00411270 00 E9 1A 10 00 00 E9 D4 0D 00 00 E9 C2 41 00 00 .............A..
00411280 E9 8B 2D 00 00 E9 26 23 00 00 E9 11 2A 00 00 E9 ..-...&#....*...
00411290 C4 40 00 00 E9 A4 0D 00 00 E9 3E 41 00 00 E9 1D .@........>A....
004112A0 26 00 00                                        &..            

;; fn004112A3: 004112A3
fn004112A3 proc
	jmp	004121C0
004112A8                         E9 A5 40 00 00                  ..@..  

;; fn004112AD: 004112AD
fn004112AD proc
	jmp	0041539A

;; fn004112B2: 004112B2
fn004112B2 proc
	jmp	00412270

;; fn004112B7: 004112B7
fn004112B7 proc
	jmp	00414090

;; fn004112BC: 004112BC
fn004112BC proc
	jmp	00411FB0
004112C1    E9 2E 41 00 00                                ..A..         

;; fn004112C6: 004112C6
fn004112C6 proc
	jmp	00413920
004112CB                                  E9 B0 3F 00 00            ..?..
004112D0 E9 6B 2F 00 00 E9 50 41 00 00 E9 E1 41 00 00    .k/...PA....A..

;; fn004112DF: 004112DF
fn004112DF proc
	jmp	0041541E
004112E4             E9 17 25 00 00 E9 52 25 00 00           ..%...R%.. 

;; Win32CrtStartup: 004112EE
Win32CrtStartup proc
	jmp	00412780
004112F3          E9 B0 41 00 00 E9 A5 41 00 00 E9 FE 21    ..A....A....!
00411300 00 00 E9 3C 0D 00 00 E9 F4 41 00 00             ...<.....A..   

;; fn0041130C: 0041130C
fn0041130C proc
	jmp	00414490
00411311    E9 54 40 00 00                                .T@..         

l00411316:
	jmp	00413070

;; fn0041131B: 0041131B
fn0041131B proc
	jmp	00415388

;; fn00411320: 00411320
fn00411320 proc
	jmp	0041537C
00411325                E9 B8 40 00 00 E9 1A 0D 00 00 E9      ..@........
00411330 5C 3F 00 00 E9 2B 40 00 00                      \?...+@..      

;; fn00411339: 00411339
fn00411339 proc
	jmp	0041531C
0041133E                                           E9 11               ..
00411340 41 00 00 E9 18 22 00 00                         A...."..       

;; fn00411348: 00411348
fn00411348 proc
	jmp	0041545A
0041134D                                        E9 2E 23              ..#
00411350 00 00                                           ..             

;; fn00411352: 00411352
fn00411352 proc
	jmp	00413450
00411357                      E9 A4 1C 00 00 E9 17 41 00        .......A.
00411360 00 E9 9A 41 00 00                               ...A..         

;; fn00411366: 00411366
fn00411366 proc
	jmp	00413C20
0041136B                                  E9 00 21 00 00            ..!..

;; fn00411370: 00411370
fn00411370 proc
	jmp	00413730
00411375                E9 86 40 00 00                        ..@..     

;; fn0041137A: 0041137A
fn0041137A proc
	jmp	00414AA0

;; fn0041137F: 0041137F
fn0041137F proc
	jmp	00411930
00411384             E9 47 24 00 00 E9 AC 3F 00 00 E9 19     .G$....?....
00411390 40 00 00 E9 04 41 00 00                         @....A..       

;; fn00411398: 00411398
fn00411398 proc
	jmp	004117F0
0041139D                                        E9 58 40              .X@
004113A0 00 00 E9 89 2B 00 00 E9 54 25 00 00             ....+...T%..   

;; fn004113AC: 004113AC
fn004113AC proc
	jmp	00415328

;; fn004113B1: 004113B1
fn004113B1 proc
	jmp	00413AA0
004113B6                   E9 65 13 00 00 E9 E0 2B 00 00       .e.....+..

;; fn004113C0: 004113C0
fn004113C0 proc
	jmp	004153A0

;; fn004113C5: 004113C5
fn004113C5 proc
	jmp	00415322
004113CA                               CC CC CC CC CC CC           ......
004113D0 CC CC CC CC CC CC CC CC CC CC CC CC CC CC CC CC ................
004113E0 CC CC CC CC CC CC CC CC CC CC CC CC CC CC CC CC ................
004113F0 CC CC CC CC CC CC CC CC CC CC CC CC CC CC CC CC ................
00411400 CC CC CC CC CC CC CC CC CC CC CC CC CC CC CC CC ................
00411410 CC CC CC CC CC CC CC CC CC CC CC CC CC CC CC CC ................
00411420 CC CC CC CC CC CC CC CC CC CC CC CC CC CC CC CC ................
00411430 CC CC CC CC CC CC CC CC CC CC CC CC CC CC CC CC ................
00411440 CC CC CC CC CC CC CC CC CC CC CC CC CC CC CC CC ................
00411450 CC CC CC CC CC CC CC CC CC CC CC CC CC CC CC CC ................
00411460 CC CC CC CC CC CC CC CC CC CC CC CC CC CC CC CC ................
00411470 CC CC CC CC CC CC CC CC CC CC CC CC CC CC CC CC ................
00411480 CC CC CC CC CC CC CC CC CC CC CC CC CC CC CC CC ................
00411490 CC CC CC CC CC CC CC CC CC CC CC CC CC CC CC CC ................
004114A0 CC CC CC CC CC CC CC CC CC CC CC CC CC CC CC CC ................
004114B0 CC CC CC CC CC CC CC CC CC CC CC CC CC CC CC CC ................
004114C0 CC CC CC CC CC CC CC CC CC CC CC CC CC CC CC CC ................
004114D0 CC CC CC CC CC CC CC CC CC CC CC CC CC CC CC CC ................
004114E0 CC CC CC CC CC CC CC CC CC CC CC CC CC CC CC CC ................
004114F0 CC CC CC CC CC CC CC CC CC CC CC CC CC CC CC CC ................
00411500 CC CC CC CC CC CC CC CC CC CC CC CC CC CC CC CC ................
00411510 CC CC CC CC CC CC CC CC CC CC CC CC CC CC CC CC ................
00411520 CC CC CC CC CC CC CC CC CC CC CC CC CC CC CC CC ................
00411530 CC CC CC CC CC CC CC CC CC CC CC CC CC CC CC CC ................
00411540 CC CC CC CC CC CC CC CC CC CC CC CC CC CC CC CC ................
00411550 CC CC CC CC CC CC CC CC CC CC CC CC CC CC CC CC ................
00411560 CC CC CC CC CC CC CC CC CC CC CC CC CC CC CC CC ................
00411570 CC CC CC CC CC CC CC CC CC CC CC CC CC CC CC CC ................
00411580 CC CC CC CC CC CC CC CC CC CC CC CC CC CC CC CC ................
00411590 CC CC CC CC CC CC CC CC CC CC CC CC CC CC CC CC ................
004115A0 CC CC CC CC CC CC CC CC CC CC CC CC CC CC CC CC ................
004115B0 CC CC CC CC CC CC CC CC CC CC CC CC CC CC CC CC ................
004115C0 CC CC CC CC CC CC CC CC CC CC CC CC CC CC CC CC ................
004115D0 CC CC CC CC CC CC CC CC CC CC CC CC CC CC CC CC ................
004115E0 CC CC CC CC CC CC CC CC CC CC CC CC CC CC CC CC ................
004115F0 CC CC CC CC CC CC CC CC CC CC CC CC CC CC CC CC ................
00411600 CC CC CC CC CC CC CC CC CC CC CC CC CC CC CC CC ................
00411610 CC CC CC CC CC CC CC CC CC CC CC CC CC CC CC CC ................
00411620 CC CC CC CC CC CC CC CC CC CC CC CC CC CC CC CC ................
00411630 CC CC CC CC CC CC CC CC CC CC CC CC CC CC CC CC ................
00411640 CC CC CC CC CC CC CC CC CC CC CC CC CC CC CC CC ................
00411650 CC CC CC CC CC CC CC CC CC CC CC CC CC CC CC CC ................
00411660 CC CC CC CC CC CC CC CC CC CC CC CC CC CC CC CC ................
00411670 CC CC CC CC CC CC CC CC CC CC CC CC CC CC CC CC ................
00411680 CC CC CC CC CC CC CC CC CC CC CC CC CC CC CC CC ................
00411690 CC CC CC CC CC CC CC CC CC CC CC CC CC CC CC CC ................
004116A0 CC CC CC CC CC CC CC CC CC CC CC CC CC CC CC CC ................
004116B0 CC CC CC CC CC CC CC CC CC CC CC CC CC CC CC CC ................
004116C0 CC CC CC CC CC CC CC CC CC CC CC CC CC CC CC CC ................
004116D0 CC CC CC CC CC CC CC CC CC CC CC CC CC CC CC CC ................
004116E0 CC CC CC CC CC CC CC CC CC CC CC CC CC CC CC CC ................
004116F0 CC CC CC CC CC CC CC CC CC CC CC CC CC CC CC CC ................
00411700 CC CC CC CC CC CC CC CC CC CC CC CC CC CC CC CC ................
00411710 CC CC CC CC CC CC CC CC CC CC CC CC CC CC CC CC ................
00411720 CC CC CC CC CC CC CC CC CC CC CC CC CC CC CC CC ................
00411730 CC CC CC CC CC CC CC CC CC CC CC CC CC CC CC CC ................
00411740 CC CC CC CC CC CC CC CC CC CC CC CC CC CC CC CC ................
00411750 CC CC CC CC CC CC CC CC CC CC CC CC CC CC CC CC ................
00411760 CC CC CC CC CC CC CC CC CC CC CC CC CC CC CC CC ................
00411770 CC CC CC CC CC CC CC CC CC CC CC CC CC CC CC CC ................
00411780 CC CC CC CC CC CC CC CC CC CC CC CC CC CC CC CC ................

l00411790:
	push	ebp
	mov	ebp,esp
	sub	esp,000000C0
	push	ebx
	push	esi
	push	edi
	lea	edi,[ebp-000000C0]
	mov	ecx,00000030
	mov	eax,CCCCCCCC

l004117AC:
	rep stosd

l004117AE:
	pop	edi
	pop	esi
	pop	ebx
	mov	esp,ebp
	pop	ebp
	ret
004117B5                CC CC CC CC CC CC CC CC CC CC CC      ...........

l004117C0:
	push	ebp
	mov	ebp,esp
	sub	esp,000000C0
	push	ebx
	push	esi
	push	edi
	lea	edi,[ebp-000000C0]
	mov	ecx,00000030
	mov	eax,CCCCCCCC

l004117DC:
	rep stosd

l004117DE:
	pop	edi
	pop	esi
	pop	ebx
	mov	esp,ebp
	pop	ebp
	ret
004117E5                CC CC CC CC CC CC CC CC CC CC CC      ...........

l004117F0:
	push	ebp
	mov	ebp,esp
	sub	esp,000000C0
	push	ebx
	push	esi
	push	edi
	lea	edi,[ebp-000000C0]
	mov	ecx,00000030
	mov	eax,CCCCCCCC

l0041180C:
	rep stosd

l0041180E:
	mov	eax,0041A138
	pop	edi
	pop	esi
	pop	ebx
	mov	esp,ebp
	pop	ebp
	ret
0041181A                               CC CC CC CC CC CC           ......
00411820 CC CC CC CC CC CC CC CC CC CC CC CC CC CC CC CC ................

l00411830:
	push	ebp
	mov	ebp,esp
	sub	esp,000000C0
	push	ebx
	push	esi
	push	edi
	lea	edi,[ebp-000000C0]
	mov	ecx,00000030
	mov	eax,CCCCCCCC

l0041184C:
	rep stosd

l0041184E:
	mov	esi,esp
	mov	eax,[ebp+14]
	push	eax
	mov	ecx,[ebp+10]
	push	ecx
	mov	edx,[ebp+0C]
	push	edx
	mov	eax,[ebp+08]
	push	eax
	call	00411398
	mov	ecx,[eax+04]
	push	ecx
	mov	edx,[eax]
	push	edx
	call	dword ptr [0041B17C]
	add	esp,18
	cmp	esi,esp
	call	0041113B
	pop	edi
	pop	esi
	pop	ebx
	add	esp,000000C0
	cmp	ebp,esp
	call	0041113B
	mov	esp,ebp
	pop	ebp
	ret
00411890 CC CC CC CC CC CC CC CC CC CC CC CC CC CC CC CC ................
004118A0 CC CC CC CC CC CC CC CC CC CC CC CC CC CC CC CC ................

l004118B0:
	push	ebp
	mov	ebp,esp
	sub	esp,000000C0
	push	ebx
	push	esi
	push	edi
	lea	edi,[ebp-000000C0]
	mov	ecx,00000030
	mov	eax,CCCCCCCC

l004118CC:
	rep stosd

l004118CE:
	mov	esi,esp
	mov	eax,[ebp+14]
	push	eax
	mov	ecx,[ebp+10]
	push	ecx
	mov	edx,[ebp+0C]
	push	edx
	mov	eax,[ebp+08]
	push	eax
	call	00411398
	mov	ecx,[eax+04]
	push	ecx
	mov	edx,[eax]
	push	edx
	call	dword ptr [0041B184]
	add	esp,18
	cmp	esi,esp
	call	0041113B
	pop	edi
	pop	esi
	pop	ebx
	add	esp,000000C0
	cmp	ebp,esp
	call	0041113B
	mov	esp,ebp
	pop	ebp
	ret
00411910 CC CC CC CC CC CC CC CC CC CC CC CC CC CC CC CC ................
00411920 CC CC CC CC CC CC CC CC CC CC CC CC CC CC CC CC ................

l00411930:
	push	ebp
	mov	ebp,esp
	sub	esp,000000D8
	push	ebx
	push	esi
	push	edi
	lea	edi,[ebp-000000D8]
	mov	ecx,00000036
	mov	eax,CCCCCCCC

l0041194C:
	rep stosd

l0041194E:
	call	00411203
	lea	eax,[ebp+0C]
	mov	[ebp-14],eax
	mov	eax,[ebp-14]
	push	eax
	push	00
	mov	ecx,[ebp+08]
	push	ecx
	mov	esi,esp
	push	01
	call	dword ptr [0041B188]
	add	esp,04
	cmp	esi,esp
	call	0041113B
	push	eax
	call	004111C7
	add	esp,10
	mov	[ebp-08],eax
	mov	dword ptr [ebp-14],00000000
	mov	eax,[ebp-08]
	pop	edi
	pop	esi
	pop	ebx
	add	esp,000000D8
	cmp	ebp,esp
	call	0041113B
	mov	esp,ebp
	pop	ebp
	ret
004119A1    CC CC CC CC CC CC CC CC CC CC CC CC CC CC CC  ...............
004119B0 CC CC CC CC CC CC CC CC CC CC CC CC CC CC CC CC ................

l004119C0:
	push	ebp
	mov	ebp,esp
	sub	esp,000006AC
	push	ebx
	push	esi
	push	edi
	lea	edi,[ebp-000006AC]
	mov	ecx,000001AB
	mov	eax,CCCCCCCC

l004119DC:
	rep stosd

l004119DE:
	mov	eax,[0041A000]
	xor	eax,ebp
	mov	[ebp-04],eax
	mov	dword ptr [ebp-18],00417B30
	mov	dword ptr [ebp-0000042C],00000000
	mov	dword ptr [ebp-00000468],00417B78
	cmp	dword ptr [ebp+08],01
	jle	00411A1A

l00411A09:
	mov	eax,00000004
	shl	eax,00
	mov	ecx,[ebp+0C]
	mov	edx,[ecx+eax]
	mov	[ebp-18],edx

l00411A1A:
	mov	eax,00000001
	test	eax,eax
	jz	00411B1C

l00411A27:
	mov	esi,esp
	push	00
	push	00
	push	03
	push	00
	push	00
	push	C0000000
	mov	eax,[ebp-00000468]
	push	eax
	call	dword ptr [0041B000]
	cmp	esi,esp
	call	0041113B
	mov	[ebp-0C],eax
	cmp	dword ptr [ebp-0C],FF
	jz	00411A5A

l00411A55:
	jmp	00411B1C

l00411A5A:
	mov	esi,esp
	call	dword ptr [0041B010]
	cmp	esi,esp
	call	0041113B
	cmp	eax,000000E7
	jz	00411ABC

l00411A70:
	mov	esi,esp
	call	dword ptr [0041B010]
	cmp	esi,esp
	call	0041113B
	push	eax
	push	00417BAC
	call	004112BC
	add	esp,08
	mov	esi,esp
	push	01
	call	dword ptr [0041B188]
	add	esp,04
	cmp	esi,esp
	call	0041113B
	mov	esi,esp
	push	eax
	call	dword ptr [0041B180]
	add	esp,04
	cmp	esi,esp
	call	0041113B
	or	eax,FF
	jmp	00411E4C

l00411ABC:
	mov	esi,esp
	push	00004E20
	mov	eax,[ebp-00000468]
	push	eax
	call	dword ptr [0041B018]
	cmp	esi,esp
	call	0041113B
	test	eax,eax
	jnz	00411B17

l00411ADB:
	push	00417BF4
	call	0041137F
	add	esp,04
	mov	esi,esp
	push	01
	call	dword ptr [0041B188]
	add	esp,04
	cmp	esi,esp
	call	0041113B
	mov	esi,esp
	push	eax
	call	dword ptr [0041B180]
	add	esp,04
	cmp	esi,esp
	call	0041113B
	or	eax,FF
	jmp	00411E4C

l00411B17:
	jmp	00411A1A

l00411B1C:
	mov	dword ptr [ebp-0000045C],00000002
	mov	esi,esp
	push	00
	push	00
	lea	eax,[ebp-0000045C]
	push	eax
	mov	ecx,[ebp-0C]
	push	ecx
	call	dword ptr [0041B014]
	cmp	esi,esp
	call	0041113B
	mov	[ebp-0000042C],eax
	cmp	dword ptr [ebp-0000042C],00
	jnz	00411B9F

l00411B53:
	mov	esi,esp
	call	dword ptr [0041B010]
	cmp	esi,esp
	call	0041113B
	push	eax
	push	00417C30
	call	004112BC
	add	esp,08
	mov	esi,esp
	push	01
	call	dword ptr [0041B188]
	add	esp,04
	cmp	esi,esp
	call	0041113B
	mov	esi,esp
	push	eax
	call	dword ptr [0041B180]
	add	esp,04
	cmp	esi,esp
	call	0041113B
	or	eax,FF
	jmp	00411E4C

l00411B9F:
	mov	esi,esp
	mov	eax,[ebp-18]
	push	eax
	call	dword ptr [0041B01C]
	cmp	esi,esp
	call	0041113B
	lea	ecx,[eax+eax+02]
	mov	[ebp-00000444],ecx
	mov	eax,[ebp-18]
	push	eax
	mov	ecx,[ebp-00000444]
	push	ecx
	push	00417C90
	call	004112BC
	add	esp,0C
	mov	esi,esp
	push	01
	call	dword ptr [0041B188]
	add	esp,04
	cmp	esi,esp
	call	0041113B
	mov	esi,esp
	push	eax
	call	dword ptr [0041B180]
	add	esp,04
	cmp	esi,esp
	call	0041113B
	mov	esi,esp
	push	00
	lea	eax,[ebp-00000450]
	push	eax
	mov	ecx,[ebp-00000444]
	push	ecx
	mov	edx,[ebp-18]
	push	edx
	mov	eax,[ebp-0C]
	push	eax
	call	dword ptr [0041B008]
	cmp	esi,esp
	call	0041113B
	mov	[ebp-0000042C],eax
	mov	esi,esp
	push	00
	lea	eax,[ebp-00000450]
	push	eax
	mov	ecx,[ebp-00000444]
	push	ecx
	mov	edx,[ebp-18]
	push	edx
	mov	eax,[ebp-0C]
	push	eax
	call	dword ptr [0041B008]
	cmp	esi,esp
	call	0041113B
	mov	[ebp-0000042C],eax
	mov	esi,esp
	push	00
	lea	eax,[ebp-00000450]
	push	eax
	mov	ecx,[ebp-00000444]
	push	ecx
	mov	edx,[ebp-18]
	push	edx
	mov	eax,[ebp-0C]
	push	eax
	call	dword ptr [0041B008]
	cmp	esi,esp
	call	0041113B
	mov	[ebp-0000042C],eax
	cmp	dword ptr [ebp-0000042C],00
	jnz	00411CD7

l00411C8B:
	mov	esi,esp
	call	dword ptr [0041B010]
	cmp	esi,esp
	call	0041113B
	push	eax
	push	00417CE0
	call	004112BC
	add	esp,08
	mov	esi,esp
	push	01
	call	dword ptr [0041B188]
	add	esp,04
	cmp	esi,esp
	call	0041113B
	mov	esi,esp
	push	eax
	call	dword ptr [0041B180]
	add	esp,04
	cmp	esi,esp
	call	0041113B
	or	eax,FF
	jmp	00411E4C

l00411CD7:
	push	00417D34
	call	0041137F
	add	esp,04
	mov	esi,esp
	push	01
	call	dword ptr [0041B188]
	add	esp,04
	cmp	esi,esp
	call	0041113B
	mov	esi,esp
	push	eax
	call	dword ptr [0041B180]
	add	esp,04
	cmp	esi,esp
	call	0041113B

l00411D0B:
	mov	esi,esp
	push	00
	lea	eax,[ebp-00000438]
	push	eax
	push	00000400
	lea	ecx,[ebp-00000420]
	push	ecx
	mov	edx,[ebp-0C]
	push	edx
	call	dword ptr [0041B004]
	cmp	esi,esp
	call	0041113B
	mov	[ebp-0000042C],eax
	cmp	dword ptr [ebp-0000042C],00
	jnz	00411D5A

l00411D42:
	mov	esi,esp
	call	dword ptr [0041B010]
	cmp	esi,esp
	call	0041113B
	cmp	eax,000000EA
	jz	00411D5A

l00411D58:
	jmp	00411DA2

l00411D5A:
	lea	eax,[ebp-00000420]
	push	eax
	push	00417D74
	call	004112BC
	add	esp,08
	mov	esi,esp
	push	01
	call	dword ptr [0041B188]
	add	esp,04
	cmp	esi,esp
	call	0041113B
	mov	esi,esp
	push	eax
	call	dword ptr [0041B180]
	add	esp,04
	cmp	esi,esp
	call	0041113B
	cmp	dword ptr [ebp-0000042C],00
	jz	00411D0B

l00411DA2:
	cmp	dword ptr [ebp-0000042C],00
	jnz	00411DF4

l00411DAB:
	mov	esi,esp
	call	dword ptr [0041B010]
	cmp	esi,esp
	call	0041113B
	push	eax
	push	00417D88
	call	004112BC
	add	esp,08
	mov	esi,esp
	push	01
	call	dword ptr [0041B188]
	add	esp,04
	cmp	esi,esp
	call	0041113B
	mov	esi,esp
	push	eax
	call	dword ptr [0041B180]
	add	esp,04
	cmp	esi,esp
	call	0041113B
	or	eax,FF
	jmp	00411E4C

l00411DF4:
	push	00417DE0
	call	0041137F
	add	esp,04
	mov	esi,esp
	push	01
	call	dword ptr [0041B188]
	add	esp,04
	cmp	esi,esp
	call	0041113B
	mov	esi,esp
	push	eax
	call	dword ptr [0041B180]
	add	esp,04
	cmp	esi,esp
	call	0041113B
	mov	esi,esp
	call	dword ptr [0041B178]
	cmp	esi,esp
	call	0041113B
	mov	esi,esp
	mov	eax,[ebp-0C]
	push	eax
	call	dword ptr [0041B00C]
	cmp	esi,esp
	call	0041113B
	xor	eax,eax

l00411E4C:
	push	edx
	mov	ecx,ebp
	push	eax
	lea	edx,[00411E7C]
	call	004112A3
	pop	eax
	pop	edx
	pop	edi
	pop	esi
	pop	ebx
	mov	ecx,[ebp-04]
	xor	ecx,ebp
	call	004112B2
	add	esp,000006AC
	cmp	ebp,esp
	call	0041113B
	mov	esp,ebp
	pop	ebp
	ret
00411E7B                                  90 04 00 00 00            .....
00411E80 84 1E 41 00 E0 FB FF FF 00 04 00 00 CC 1E 41 00 ..A...........A.
00411E90 C8 FB FF FF 04 00 00 00 C5 1E 41 00 B0 FB FF FF ..........A.....
00411EA0 04 00 00 00 BB 1E 41 00 A4 FB FF FF 04 00 00 00 ......A.........
00411EB0 B4 1E 41 00 64 77 4D 6F 64 65 00 63 62 57 72 69 ..A.dwMode.cbWri
00411EC0 74 74 65 6E 00 63 62 52 65 61 64 00 63 68 42 75 tten.cbRead.chBu
00411ED0 66 00 CC CC CC CC CC CC CC CC CC CC CC CC CC CC f...............
00411EE0 CC CC CC CC CC CC CC CC CC CC CC CC CC CC CC CC ................
00411EF0 CC CC CC CC CC CC CC CC CC CC CC CC CC CC CC CC ................
00411F00 CC CC CC CC CC CC CC CC CC CC CC CC CC CC CC CC ................
00411F10 CC CC CC CC CC CC CC CC CC CC CC CC CC CC CC CC ................
00411F20 CC CC CC CC CC CC CC CC CC CC CC CC CC CC CC CC ................
00411F30 CC CC CC CC CC CC CC CC CC CC CC CC CC CC CC CC ................
00411F40 CC CC CC CC CC CC CC CC CC CC CC CC CC CC CC CC ................
00411F50 CC CC CC CC CC CC CC CC CC CC CC CC CC CC CC CC ................
00411F60 CC CC CC CC CC CC CC CC CC CC CC CC CC CC CC CC ................
00411F70 CC CC CC CC CC CC CC CC CC CC CC CC CC CC CC CC ................
00411F80 CC CC CC CC CC CC CC CC CC CC CC CC CC CC CC CC ................
00411F90 CC CC CC CC CC CC CC CC CC CC CC CC CC CC CC CC ................
00411FA0 CC CC CC CC CC CC CC CC CC CC CC CC CC CC CC CC ................

;; fn00411FB0: 00411FB0
fn00411FB0 proc
	push	ebp
	mov	ebp,esp
	sub	esp,000000D8
	push	ebx
	push	esi
	push	edi
	lea	edi,[ebp-000000D8]
	mov	ecx,00000036
	mov	eax,CCCCCCCC

l00411FCC:
	rep stosd

l00411FCE:
	call	0041107D
	lea	eax,[ebp+0C]
	mov	[ebp-14],eax
	mov	eax,[ebp-14]
	push	eax
	push	00
	mov	ecx,[ebp+08]
	push	ecx
	mov	esi,esp
	push	01
	call	dword ptr [0041B188]
	add	esp,04
	cmp	esi,esp
	call	0041113B
	push	eax
	call	0041123F
	add	esp,10
	mov	[ebp-08],eax
	mov	dword ptr [ebp-14],00000000
	mov	eax,[ebp-08]
	pop	edi
	pop	esi
	pop	ebx
	add	esp,000000D8
	cmp	ebp,esp
	call	0041113B
	mov	esp,ebp
	pop	ebp
	ret
00412021    CC CC CC CC CC CC CC CC CC CC CC CC CC CC CC  ...............
00412030 CC CC CC CC CC CC CC CC CC CC CC CC CC FF 25 00 ..............%.
00412040 B0 41 00 FF 25 04 B0 41 00 FF 25 08 B0 41 00 FF .A..%..A..%..A..
00412050 25 0C B0 41 00 FF 25 10 B0 41 00 FF 25 14 B0 41 %..A..%..A..%..A
00412060 00 FF 25 18 B0 41 00 FF 25 1C B0 41 00 CC CC CC ..%..A..%..A....
00412070 55 8B EC 53 56 8B F1 8B DA 85 F6 74 1F 85 DB 74 U..SV......t...t
00412080 1B 8B 55 08 85 D2 74 14 57 B0 CC 8B FE 8B CB F3 ..U...t.W.......
00412090 AA 8B 02 89 46 04 89 5E 0C 89 32 5F 5E 5B 5D C2 ....F..^..2_^[].
004120A0 04 00 CC CC CC CC CC CC CC CC CC CC CC CC CC CC ................
004120B0 55 8B EC 51 53 8B DA 89 4D FC 56 57 85 DB 74 4D U..QS...M.VW..tM
004120C0 33 F6 39 33 7E 47 33 FF EB 06 8D 9B 00 00 00 00 3.93~G3.........
004120D0 8B 4B 04 8B 45 FC 8B 14 39 81 7C 02 FC CC CC CC .K..E...9.|.....
004120E0 CC 75 12 8B 44 39 04 03 C2 8B 55 FC 81 3C 10 CC .u..D9....U..<..
004120F0 CC CC CC 74 10 FF 74 39 08 8B 45 04 50 E8 F3 EF ...t..t9..E.P...
00412100 FF FF 83 C4 08 46 83 C7 0C 3B 33 7C C3 8B 75 08 .....F...;3|..u.
00412110 33 FF 8B C6 85 F6 74 60 8B 40 04 47 85 C0 75 F8 3.....t`.@.G..u.
00412120 85 F6 74 54 81 3E CC CC CC CC 75 1B 81 7E 14 CC ..tT.>....u..~..
00412130 CC CC CC 75 12 81 7E 18 CC CC CC CC 75 09 81 7E ...u..~.....u..~
00412140 1C CC CC CC CC 74 0E 8B 45 04 57 56 50 E8 49 EF .....t..E.WVP.I.
00412150 FF FF 83 C4 0C 8B 46 0C 81 7C 30 FC CC CC CC CC ......F..|0.....
00412160 74 0E 8B 45 04 57 56 50 E8 2E EF FF FF 83 C4 0C t..E.WVP........
00412170 8B 76 04 4F 85 F6 75 AC 5F 5E 5B 8B E5 5D C2 04 .v.O..u._^[..]..
00412180 00 CC CC CC CC CC CC CC CC CC CC CC CC CC CC CC ................
00412190 CC CC CC CC CC CC CC CC CC CC CC CC CC CC CC CC ................
004121A0 CC CC CC CC CC CC CC CC CC CC CC CC CC CC CC CC ................
004121B0 CC CC CC CC CC CC CC CC CC CC CC CC CC CC CC CC ................

l004121C0:
	push	ebp
	mov	ebp,esp
	push	ecx
	push	ebx
	mov	ebx,edx
	mov	[ebp-04],ecx
	push	esi
	xor	esi,esi
	cmp	[ebx],esi
	jle	00412212

l004121D1:
	push	edi
	xor	edi,edi

l004121D4:
	mov	ecx,[ebx+04]
	mov	eax,[ebp-04]
	mov	edx,[ecx+edi]
	cmp	dword ptr [edx+eax-04],CCCCCCCC
	jnz	004121F9

l004121E7:
	mov	eax,[ecx+edi+04]
	add	eax,edx
	mov	edx,[ebp-04]
	cmp	dword ptr [eax+edx],CCCCCCCC
	jz	00412209

l004121F9:
	push	dword ptr [ecx+edi+08]
	mov	eax,[ebp+04]
	push	eax
	call	004110F5
	add	esp,08

l00412209:
	inc	esi
	add	edi,0C
	cmp	esi,[ebx]
	jl	004121D4

l00412211:
	pop	edi

l00412212:
	pop	esi
	pop	ebx
	mov	esp,ebp
	pop	ebp
	ret
00412218                         CC CC CC CC CC CC CC CC         ........
00412220 CC CC CC CC CC CC CC CC CC CC CC CC CC CC CC CC ................

;; fn00412230: 00412230
fn00412230 proc
	repne jnz	00412235

l00412233:
	repne ret

l00412235:
	push	ebp
	mov	ebp,esp
	sub	esp,00
	push	eax
	illegal
	add	al,04
	push	edx
	push	ebx
	push	esi
	push	edi
	mov	eax,[ebp+04]
	push	00
	push	eax
	call	00411078
	add	esp,08
	pop	edi
	pop	esi
	pop	ebx
	pop	edx
	pop	eax
	illegal
	inc	esp
	add	al,FC
	mov	esp,ebp
	pop	ebp
	repne ret
	int	03
	int	03
	int	03
	int	03
	int	03
	int	03
	int	03
	int	03
	int	03
	int	03
	int	03
	int	03
	int	03
	int	03
	int	03

l00412270:
	cmp	ecx,[0041A000]
	repne jnz	0041227B

l00412279:
	repne ret

l0041227B:
	repne jmp	00411316
00412281    CC CC CC CC CC CC CC CC CC CC CC CC CC CC CC  ...............
00412290 B8 22 11 41 00 C3 CC CC CC CC CC CC CC CC CC CC .".A............
004122A0 B8 A8 12 41 00 C3 CC CC CC CC CC CC CC CC CC CC ...A............
004122B0 80 3D 48 A1 41 00 00 75 1F 6A 00 6A 01 6A 00 6A .=H.A..u.j.j.j.j
004122C0 00 6A 00 C6 05 48 A1 41 00 01 E8 9A ED FF FF 50 .j...H.A.......P
004122D0 E8 42 EF FF FF 83 C4 18 C3 CC CC CC CC CC CC CC .B..............
004122E0 CC CC CC CC CC CC CC CC CC CC CC CC CC CC CC CC ................
004122F0 6A 01 6A 01 6A 00 6A 00 6A 00 E8 6A ED FF FF 83 j.j.j.j.j..j....
00412300 C4 14 C3 CC CC CC CC CC CC CC CC CC CC CC CC CC ................
00412310 55 8B EC E8 9E F0 FF FF E8 1F ED FF FF E8 1F ED U...............
00412320 FF FF 6A 01 E8 34 EF FF FF 83 C4 04 0F B6 C0 85 ..j..4..........
00412330 C0 75 07 6A 07 E8 34 ED FF FF DB E2 E8 AF ED FF .u.j..4.........
00412340 FF 68 A4 11 41 00 E8 78 ED FF FF 83 C4 04 E8 BB .h..A..x........
00412350 ED FF FF 85 C0 74 07 6A 07 E8 10 ED FF FF E8 E1 .....t.j........
00412360 EE FF FF E8 C9 ED FF FF 85 C0 74 0D 68 C2 11 41 ..........t.h..A
00412370 00 E8 BE EF FF FF 83 C4 04 E8 30 EE FF FF E8 85 ..........0.....
00412380 EE FF FF E8 C8 EC FF FF E8 22 ED FF FF 50 E8 9F ........."...P..
00412390 EC FF FF 83 C4 04 E8 20 F0 FF FF 0F B6 C8 85 C9 ....... ........
004123A0 74 05 E8 44 ED FF FF E8 F9 EC FF FF 33 C0 5D C3 t..D........3.].
004123B0 CC CC CC CC CC CC CC CC CC CC CC CC CC CC CC CC ................
004123C0 CC CC CC CC CC CC CC CC CC CC CC CC CC CC CC CC ................
004123D0 CC CC CC CC CC CC CC CC CC CC CC CC CC CC CC CC ................
004123E0 55 8B EC E8 98 EE FF FF 33 C0 5D C3 CC CC CC CC U.......3.].....
004123F0 55 8B EC E8 93 ED FF FF E8 D9 ED FF FF 50 E8 B5 U............P..
00412400 ED FF FF 83 C4 04 5D C3 CC CC CC CC CC CC CC CC ......].........

;; fn00412410: 00412410
fn00412410 proc
	push	ebp
	mov	ebp,esp
	call	00411230
	call	00412430
	pop	ebp
	ret
0041241F                                              CC                .
00412420 CC CC CC CC CC CC CC CC CC CC CC CC CC CC CC CC ................

;; fn00412430: 00412430
fn00412430 proc
	push	ebp
	mov	ebp,esp
	push	FE
	push	004191B8
	push	004144B0
	mov	eax,fs:[00000000]
	push	eax
	add	esp,D0
	push	ebx
	push	esi
	push	edi
	mov	eax,[0041A000]
	xor	[ebp-08],eax
	xor	eax,ebp
	push	eax
	lea	eax,[ebp-10]
	mov	fs:[00000000],eax
	mov	[ebp-18],esp
	push	01
	call	004112C6
	add	esp,04
	movzx	eax,al
	test	eax,eax
	jnz	0041247B

l00412474:
	push	07
	call	0041106E

l0041247B:
	mov	byte ptr [ebp-19],00
	mov	dword ptr [ebp-04],00000000
	call	00411370
	mov	[ebp-1A],al
	cmp	dword ptr [0041A534],01
	jnz	004124A0

l00412497:
	push	07
	call	0041106E
	jmp	00412501

l004124A0:
	cmp	dword ptr [0041A534],00
	jnz	004124FD

l004124A9:
	mov	dword ptr [0041A534],00000001
	push	00417618
	push	0041730C
	call	004110A0
	add	esp,08
	test	eax,eax
	jz	004124DF

l004124C9:
	mov	dword ptr [ebp-38],000000FF
	mov	dword ptr [ebp-04],FFFFFFFE
	mov	eax,[ebp-38]
	jmp	0041262B

l004124DF:
	push	00417208
	push	00417000
	call	00411320
	add	esp,08
	mov	dword ptr [0041A534],00000002
	jmp	00412501

l004124FD:
	mov	byte ptr [ebp-19],01

l00412501:
	movzx	ecx,byte ptr [ebp-1A]
	push	ecx
	call	00411366
	add	esp,04
	call	004112B7
	mov	[ebp-20],eax
	mov	edx,[ebp-20]
	cmp	dword ptr [edx],00
	jz	0041254A

l0041251E:
	mov	eax,[ebp-20]
	push	eax
	call	004113B1
	add	esp,04
	movzx	ecx,al
	test	ecx,ecx
	jz	0041254A

l00412531:
	push	00
	push	02
	push	00
	mov	edx,[ebp-20]
	mov	eax,[edx]
	mov	[ebp-28],eax
	mov	ecx,[ebp-28]
	call	0041130C
	call	dword ptr [ebp-28]

l0041254A:
	call	004110E1
	mov	[ebp-24],eax
	mov	ecx,[ebp-24]
	cmp	dword ptr [ecx],00
	jz	0041257B

l0041255A:
	mov	edx,[ebp-24]
	push	edx
	call	004113B1
	add	esp,04
	movzx	eax,al
	test	eax,eax
	jz	0041257B

l0041256D:
	mov	ecx,[ebp-24]
	mov	edx,[ecx]
	push	edx
	call	004111E0
	add	esp,04

l0041257B:
	call	004126F0
	mov	[ebp-2C],eax
	call	00411145
	movzx	eax,al
	test	eax,eax
	jnz	00412598

l0041258F:
	mov	ecx,[ebp-2C]
	push	ecx
	call	0041131B

l00412598:
	movzx	edx,byte ptr [ebp-19]
	test	edx,edx
	jnz	004125A5

l004125A0:
	call	004110B9

l004125A5:
	push	00
	push	01
	call	00411190
	add	esp,08
	mov	eax,[ebp-2C]
	mov	[ebp-3C],eax
	mov	dword ptr [ebp-04],FFFFFFFE
	mov	eax,[ebp-3C]
	jmp	0041262B
004125C3          C7 45 FC FE FF FF FF EB 5F 8B 4D EC 8B    .E......_.M..
004125D0 11 8B 02 89 45 D0 8B 4D EC 51 8B 55 D0 52 E8 AC ....E..M.Q.U.R..
004125E0 EC FF FF 83 C4 08 C3 8B 65 E8 8B 45 D0 89 45 CC ........e..E..E.
004125F0 E8 50 EB FF FF 0F B6 C8 85 C9 75 09 8B 55 CC 52 .P........u..U.R
00412600 E8 E5 EB FF FF 0F B6 45 E7 85 C0 75 05 E8 7C ED .......E...u..|.
00412610 FF FF 8B 4D CC 89 4D C0 C7 45 FC FE FF FF FF 8B ...M..M..E......
00412620 45 C0 EB 07 C7 45 FC FE FF FF FF                E....E.....    

l0041262B:
	mov	ecx,[ebp-10]
	mov	fs:[00000000],ecx
	pop	ecx
	pop	edi
	pop	esi
	pop	ebx
	mov	esp,ebp
	pop	ebp
	ret
0041263D                                        CC CC CC              ...
00412640 CC CC CC CC CC CC CC CC CC CC CC CC CC CC CC CC ................
00412650 CC CC CC CC CC CC CC CC CC CC CC CC CC CC CC CC ................
00412660 CC CC CC CC CC CC CC CC CC CC CC CC CC CC CC CC ................
00412670 CC CC CC CC CC CC CC CC CC CC CC CC CC CC CC CC ................
00412680 CC CC CC CC CC CC CC CC CC CC CC CC CC CC CC CC ................
00412690 CC CC CC CC CC CC CC CC CC CC CC CC CC CC CC CC ................
004126A0 CC CC CC CC CC CC CC CC CC CC CC CC CC CC CC CC ................
004126B0 CC CC CC CC CC CC CC CC CC CC CC CC CC CC CC CC ................
004126C0 55 8B EC E8 4C E9 FF FF 50 E8 43 EC FF FF 83 C4 U...L...P.C.....
004126D0 04 5D C3 CC CC CC CC CC CC CC CC CC CC CC CC CC .]..............
004126E0 55 8B EC E8 94 EA FF FF 5D C3 CC CC CC CC CC CC U.......].......

;; fn004126F0: 004126F0
fn004126F0 proc
	push	ebp
	mov	ebp,esp
	call	004110D2
	push	eax
	call	004113C0
	mov	eax,[eax]
	push	eax
	call	004112AD
	mov	ecx,[eax]
	push	ecx
	call	00411154
	add	esp,0C
	pop	ebp
	ret
00412713          CC CC CC CC CC CC CC CC CC CC CC CC CC    .............
00412720 55 8B EC 6A 01 E8 C5 EA FF FF 83 C4 04 5D C3 CC U..j.........]..
00412730 CC CC CC CC CC CC CC CC CC CC CC CC CC CC CC CC ................
00412740 55 8B EC 56 E8 3E E9 FF FF 8B F0 E8 DC E9 FF FF U..V.>..........
00412750 89 30 5E 5D C3 CC CC CC CC CC CC CC CC CC CC CC .0^]............
00412760 55 8B EC E8 3A EC FF FF 50 E8 9B E9 FF FF 83 C4 U...:...P.......
00412770 04 5D C3 CC CC CC CC CC CC CC CC CC CC CC CC CC .]..............

l00412780:
	push	ebp
	mov	ebp,esp
	call	00412410
	pop	ebp
	ret
0041278A                               CC CC CC CC CC CC           ......

;; fn00412790: 00412790
fn00412790 proc
	push	ebp
	mov	ebp,esp
	push	FE
	push	004191D8
	push	004144B0
	mov	eax,fs:[00000000]
	push	eax
	sub	esp,24
	push	ebx
	push	esi
	push	edi
	mov	eax,[0041A000]
	xor	[ebp-08],eax
	xor	eax,ebp
	push	eax
	lea	eax,[ebp-10]
	mov	fs:[00000000],eax
	mov	[ebp-18],esp
	mov	byte ptr [ebp-19],00
	mov	dword ptr [ebp-34],00001001
	mov	eax,[ebp+08]
	mov	[ebp-30],eax
	lea	eax,[ebp-19]
	mov	[ebp-2C],eax
	mov	dword ptr [ebp-04],00000000
	lea	eax,[ebp-34]
	push	eax
	push	06
	push	00
	push	406D1388
	call	dword ptr [0041B06C]
	jmp	0041280C
004127F6                   8B 45 EC 8B 00 33 C9 81 38 88       .E...3..8.
00412800 13 6D 40 0F 94 C1 8B C1 C3 8B 65 E8             .m@.......e.   

l0041280C:
	mov	dword ptr [ebp-04],FFFFFFFE
	movzx	eax,byte ptr [ebp-19]
	mov	ecx,[ebp-10]
	mov	fs:[00000000],ecx
	pop	ecx
	pop	edi
	pop	esi
	pop	ebx
	mov	esp,ebp
	pop	ebp
	ret
00412829                            CC CC CC CC CC CC CC          .......
00412830 CC CC CC CC CC CC CC CC CC CC CC CC CC CC CC CC ................
00412840 CC CC CC CC CC CC CC CC CC CC CC CC CC CC CC CC ................

;; fn00412850: 00412850
fn00412850 proc
	push	ebp
	mov	ebp,esp
	push	FE
	push	004191F8
	push	004144B0
	mov	eax,fs:[00000000]
	push	eax
	sub	esp,24
	push	ebx
	push	esi
	push	edi
	mov	eax,[0041A000]
	xor	[ebp-08],eax
	xor	eax,ebp
	push	eax
	lea	eax,[ebp-10]
	mov	fs:[00000000],eax
	mov	[ebp-18],esp
	mov	byte ptr [ebp-19],00
	mov	dword ptr [ebp-34],00001002
	mov	eax,[ebp+08]
	mov	[ebp-30],eax
	mov	eax,[ebp+0C]
	mov	[ebp-2C],eax
	mov	eax,[ebp+10]
	mov	[ebp-28],eax
	lea	eax,[ebp-19]
	mov	[ebp-24],eax
	mov	eax,[ebp+14]
	mov	[ebp-20],eax
	mov	dword ptr [ebp-04],00000000
	lea	eax,[ebp-34]
	push	eax
	push	06
	push	00
	push	406D1388
	call	dword ptr [0041B06C]
	jmp	004128DE
004128C8                         8B 45 EC 8B 00 33 C9 81         .E...3..
004128D0 38 88 13 6D 40 0F 94 C1 8B C1 C3 8B 65 E8       8..m@.......e. 

l004128DE:
	mov	dword ptr [ebp-04],FFFFFFFE
	movzx	eax,byte ptr [ebp-19]
	mov	ecx,[ebp-10]
	mov	fs:[00000000],ecx
	pop	ecx
	pop	edi
	pop	esi
	pop	ebx
	mov	esp,ebp
	pop	ebp
	ret
004128FB                                  CC CC CC CC CC            .....
00412900 CC CC CC CC CC CC CC CC CC CC CC CC CC CC CC CC ................
00412910 CC CC CC CC CC CC CC CC CC CC CC CC CC CC CC CC ................
00412920 CC CC CC CC CC CC CC CC CC CC CC CC CC CC CC CC ................
00412930 55 8B EC 81 EC 44 01 00 00 A1 00 A0 41 00 33 C5 U....D......A.3.
00412940 89 45 FC 8B 45 08 53 8B 5D 0C 57 8B 3D 1C A0 41 .E..E.S.].W.=..A
00412950 00 89 85 BC FE FF FF 83 FF FF 0F 84 A6 00 00 00 ................
00412960 85 DB 75 21 68 70 83 41 00 6A 04 57 50 E8 EE 02 ..u!hp.A.j.WP...
00412970 00 00 83 C4 10 5F 5B 8B 4D FC 33 CD E8 31 E9 FF ....._[.M.3..1..
00412980 FF 8B E5 5D C3 8B 43 0C 56 83 E8 24 8D 73 20 50 ...]..C.V..$.s P
00412990 56 8D 45 B4 50 8D 45 E8 50 E8 02 02 00 00 68 C8 V.E.P.E.P.....h.
004129A0 83 41 00 8D 45 B4 50 68 CC 83 41 00 8D 45 E8 50 .A..E.Ph..A..E.P
004129B0 8B 43 0C 68 D0 83 41 00 FF 75 10 83 E8 24 68 DC .C.h..A..u...$h.
004129C0 83 41 00 50 68 10 84 41 00 56 68 1C 84 41 00 68 .A.Ph..A.Vh..A.h
004129D0 30 84 41 00 68 88 84 41 00 8D 85 C0 FE FF FF 68 0.A.h..A.......h
004129E0 F4 00 00 00 50 E8 6D E9 FF FF 83 C4 4C 8D 85 C0 ....P.m.....L...
004129F0 FE FF FF 50 6A 04 57 FF B5 BC FE FF FF E8 5E 02 ...Pj.W.......^.
00412A00 00 00 83 C4 10 5E 8B 4D FC 5F 33 CD 5B E8 A0 E8 .....^.M._3.[...
00412A10 FF FF 8B E5 5D C3 CC CC CC CC CC CC CC CC CC CC ....]...........
00412A20 CC CC CC CC CC CC CC CC CC CC CC CC CC CC CC CC ................
00412A30 CC CC CC CC CC CC CC CC CC CC CC CC CC CC CC CC ................
00412A40 CC CC CC CC CC CC CC CC CC CC CC CC CC CC CC CC ................
00412A50 55 8B EC 8B 45 0C 83 F8 04 77 23 8B 0C 85 0C A0 U...E....w#.....
00412A60 41 00 8B 14 85 2C 7E 41 00 83 F9 FF 74 2E 52 50 A....,~A....t.RP
00412A70 51 FF 75 08 E8 E7 01 00 00 83 C4 10 5D C3 8B 15 Q.u.........]...
00412A80 40 7E 41 00 B8 05 00 00 00 52 50 B9 01 00 00 00 @~A......RP.....
00412A90 51 FF 75 08 E8 C7 01 00 00 83 C4 10 5D C3 CC CC Q.u.........]...
00412AA0 CC CC CC CC CC CC CC CC CC CC CC CC CC CC CC CC ................
00412AB0 CC CC CC CC CC CC CC CC CC CC CC CC CC CC CC CC ................

;; fn00412AC0: 00412AC0
fn00412AC0 proc
	push	ebp
	mov	ebp,esp
	sub	esp,00000404
	mov	eax,[0041A000]
	xor	eax,ebp
	mov	[ebp-04],eax
	push	ebx
	mov	ebx,[ebp+08]
	push	esi
	mov	esi,[ebp+0C]
	push	edi
	mov	edi,[0041A014]
	cmp	edi,FF
	jz	00412B5A

l00412AE7:
	cmp	byte ptr [esi],00
	jz	00412B48

l00412AEC:
	push	esi
	call	00412C40
	add	eax,2D
	add	esp,04
	cmp	eax,00000400
	ja	00412B48

l00412AFF:
	push	00417E5C
	lea	eax,[ebp-00000404]
	push	00000400
	push	eax
	call	0041105A
	push	esi
	lea	eax,[ebp-00000404]
	push	00000400
	push	eax
	call	00411064
	push	00417E78
	lea	eax,[ebp-00000404]
	push	00000400
	push	eax
	call	00411064
	add	esp,24
	lea	eax,[ebp-00000404]
	jmp	00412B4D

l00412B48:
	mov	eax,00418338

l00412B4D:
	push	eax
	push	02
	push	edi
	push	ebx
	call	00412C60
	add	esp,10

l00412B5A:
	mov	ecx,[ebp-04]
	pop	edi
	pop	esi
	xor	ecx,ebp
	pop	ebx
	call	004112B2
	mov	esp,ebp
	pop	ebp
	ret
00412B6B                                  CC CC CC CC CC            .....
00412B70 CC CC CC CC CC CC CC CC CC CC CC CC CC CC CC CC ................
00412B80 CC CC CC CC CC CC CC CC CC CC CC CC CC CC CC CC ................
00412B90 CC CC CC CC CC CC CC CC CC CC CC CC CC CC CC CC ................
00412BA0 55 8B EC 8B 4D 0C 83 EC 08 53 8B 5D 10 56 33 F6 U...M....S.].V3.
00412BB0 57 8B 7D 08 2B DF 89 5D 10 8D 56 31 8B 45 14 89 W.}.+..]..V1.E..
00412BC0 55 FC 89 4D F8 83 F8 10 72 05 B8 10 00 00 00 3B U..M....r......;
00412BD0 F0 73 2B 8A 1C 3B 0F B6 C3 50 68 68 83 41 00 52 .s+..;...Phh.A.R
00412BE0 51 E8 71 E7 FF FF 8B 55 FC 83 C4 10 8B 4D F8 46 Q.q....U.....M.F
00412BF0 88 1F 83 EA 03 8B 5D 10 83 C1 03 47 EB BE 8B 45 ......]....G...E
00412C00 08 5F C6 04 06 00 8B 45 0C 8D 04 70 C6 04 06 00 ._.....E...p....
00412C10 5E 5B 8B E5 5D C3 CC CC CC CC CC CC CC CC CC CC ^[..]...........
00412C20 CC CC CC CC CC CC CC CC CC CC CC CC CC CC CC CC ................
00412C30 CC CC CC CC CC CC CC CC CC CC CC CC CC CC CC CC ................

;; fn00412C40: 00412C40
fn00412C40 proc
	push	ebp
	mov	ebp,esp
	mov	edx,[ebp+08]
	mov	eax,edx

l00412C48:
	mov	cl,[eax]
	inc	eax
	test	cl,cl
	jnz	00412C48

l00412C4F:
	sub	eax,edx
	dec	eax
	pop	ebp
	ret
00412C54             CC CC CC CC CC CC CC CC CC CC CC CC     ............

;; fn00412C60: 00412C60
fn00412C60 proc
	push	ebp
	mov	ebp,esp
	sub	esp,00000E3C
	mov	eax,[0041A000]
	xor	eax,ebp
	mov	[ebp-04],eax
	mov	eax,[ebp+10]
	push	ebx
	mov	ebx,[ebp+14]
	push	esi
	mov	esi,[ebp+08]
	push	edi
	push	esi
	mov	[ebp-00000E30],eax
	mov	[ebp-00000E3C],ebx
	mov	dword ptr [ebp-00000E34],00000000
	call	004110C8
	mov	edi,eax
	add	esp,04
	test	edi,edi
	jnz	00412CB3

l00412CA4:
	push	esi
	call	00411352
	add	esp,04
	mov	[ebp-00000E34],eax

l00412CB3:
	push	00
	push	00
	push	FF
	push	ebx
	push	00
	push	0000FDE9
	call	dword ptr [0041B068]
	cmp	eax,00000200
	jnc	00412CF0

l00412CCE:
	push	eax
	lea	eax,[ebp-00000E2C]
	push	eax
	push	FF
	push	ebx
	push	00
	push	0000FDE9
	call	dword ptr [0041B068]
	lea	ebx,[ebp-00000E2C]
	test	eax,eax
	jnz	00412CF5

l00412CF0:
	mov	ebx,00418210

l00412CF5:
	push	00001002
	call	00412790
	add	esp,04
	test	eax,eax
	jz	00412D2A

l00412D06:
	mov	eax,[ebp-00000E30]
	push	ebx
	push	esi
	push	dword ptr [00417E44+eax*4]
	push	eax
	call	00412850
	add	esp,10
	test	eax,eax
	jnz	00412E4D

l00412D26:
	xor	al,al
	jmp	00412D2C

l00412D2A:
	mov	al,01

l00412D2C:
	cmp	dword ptr [ebp-00000E34],00
	jnz	00412D3D

l00412D35:
	test	edi,edi
	jz	00412E4C

l00412D3D:
	test	al,al
	jz	00412D4F

l00412D41:
	call	dword ptr [0041B070]
	test	eax,eax
	jnz	00412E4C

l00412D4F:
	push	00000104
	lea	eax,[ebp-00000414]
	push	eax
	lea	eax,[ebp-00000E38]
	push	eax
	push	00000104
	lea	eax,[ebp-0000020C]
	push	eax
	lea	eax,[esi-05]
	push	eax
	call	0041137A
	add	esp,18
	test	edi,edi
	jz	00412DAF

l00412D7E:
	push	ebx
	push	dword ptr [ebp-00000E30]
	lea	eax,[ebp-00000414]
	mov	ecx,edi
	push	00418298
	push	eax
	push	dword ptr [ebp-00000E38]
	lea	eax,[ebp-0000020C]
	push	eax
	push	dword ptr [ebp+0C]
	call	0041130C
	call	edi
	jmp	00412E44

l00412DAF:
	push	00
	push	00
	push	0000030A
	lea	eax,[ebp-00000720]
	mov	esi,004182E4
	push	eax
	push	FF
	lea	eax,[ebp-0000020C]
	push	eax
	push	00
	push	0000FDE9
	call	dword ptr [0041B064]
	test	eax,eax
	jz	00412DE4

l00412DDE:
	lea	esi,[ebp-00000720]

l00412DE4:
	push	00
	push	00
	push	0000030A
	lea	eax,[ebp-00000A2C]
	mov	edi,004182F8
	push	eax
	push	FF
	lea	eax,[ebp-00000414]
	push	eax
	push	00
	push	0000FDE9
	call	dword ptr [0041B064]
	test	eax,eax
	jz	00412E19

l00412E13:
	lea	edi,[ebp-00000A2C]

l00412E19:
	push	dword ptr [ebp-00000E3C]
	mov	ebx,[ebp-00000E34]
	mov	ecx,ebx
	push	dword ptr [ebp-00000E30]
	push	00418310
	push	edi
	push	dword ptr [ebp-00000E38]
	push	esi
	push	dword ptr [ebp+0C]
	call	0041130C
	call	ebx

l00412E44:
	add	esp,1C
	cmp	eax,01
	jnz	00412E4D

l00412E4C:
	int	03

l00412E4D:
	mov	ecx,[ebp-04]
	pop	edi
	pop	esi
	xor	ecx,ebp
	pop	ebx
	call	004112B2
	mov	esp,ebp
	pop	ebp
	ret
00412E5E                                           CC CC               ..
00412E60 CC CC CC CC CC CC CC CC CC CC CC CC CC CC CC CC ................
00412E70 CC CC CC CC CC CC CC CC CC CC CC CC CC CC CC CC ................
00412E80 CC CC CC CC CC CC CC CC CC CC CC CC CC CC CC CC ................
00412E90 CC CC CC CC CC CC CC CC CC CC CC CC CC CC CC CC ................
00412EA0 CC CC CC CC CC CC CC CC CC CC CC CC CC CC CC CC ................
00412EB0 CC CC CC CC CC CC CC CC CC CC CC CC CC CC CC CC ................
00412EC0 CC CC CC CC CC CC CC CC CC CC CC CC CC CC CC CC ................
00412ED0 CC CC CC CC CC CC CC CC CC CC CC CC CC CC CC CC ................
00412EE0 55 8B EC 81 EC 04 04 00 00 A1 00 A0 41 00 33 C5 U...........A.3.
00412EF0 89 45 FC 56 8B 75 08 57 8B 3D 18 A0 41 00 83 FF .E.V.u.W.=..A...
00412F00 FF 74 75 85 F6 74 5C 56 E8 33 FD FF FF 83 C0 3A .tu..t\V.3.....:
00412F10 83 C4 04 3D 00 04 00 00 77 49 68 8C 7E 41 00 8D ...=....wIh.~A..
00412F20 85 FC FB FF FF 68 00 04 00 00 50 E8 2A E1 FF FF .....h....P.*...
00412F30 56 8D 85 FC FB FF FF 68 00 04 00 00 50 E8 22 E1 V......h....P.".
00412F40 FF FF 68 9C 7E 41 00 8D 85 FC FB FF FF 68 00 04 ..h.~A.......h..
00412F50 00 00 50 E8 0C E1 FF FF 83 C4 24 8D 85 FC FB FF ..P.......$.....
00412F60 FF EB 05 B8 A8 84 41 00 50 8B 45 04 6A 03 57 50 ......A.P.E.j.WP
00412F70 E8 EB FC FF FF 83 C4 10 8B 4D FC 5F 33 CD 5E E8 .........M._3.^.
00412F80 2E E3 FF FF 8B E5 5D C3 CC CC CC CC CC CC CC CC ......].........
00412F90 CC CC CC CC CC CC CC CC CC CC CC CC CC CC CC CC ................
00412FA0 CC CC CC CC CC CC CC CC CC CC CC CC CC CC CC CC ................
00412FB0 CC CC CC CC CC CC CC CC CC CC CC CC CC CC CC CC ................
00412FC0 55 8B EC E8 D0 E3 FF FF FF 75 18 FF 75 14 FF 75 U........u..u..u
00412FD0 10 FF 75 0C FF 75 08 FF 70 04 FF 30 E8 A5 E1 FF ..u..u..p..0....
00412FE0 FF 83 C4 1C 85 C0 79 03 83 C8 FF 5D C3 CC CC CC ......y....]....
00412FF0 CC CC CC CC CC CC CC CC CC CC CC CC CC CC CC CC ................
00413000 55 8B EC E8 FB E1 FF FF 8D 45 14 50 6A 00 FF 75 U........E.Pj..u
00413010 10 FF 75 0C FF 75 08 E8 4C E1 FF FF 83 C4 14 5D ..u..u..L......]
00413020 C3 CC CC CC CC CC CC CC CC CC CC CC CC CC CC CC ................

;; fn00413030: 00413030
fn00413030 proc
	push	ebp
	mov	ebp,esp
	push	00
	call	dword ptr [0041B05C]
	mov	eax,[ebp+08]
	push	eax
	call	dword ptr [0041B060]
	push	C0000409
	call	dword ptr [0041B058]
	push	eax
	call	dword ptr [0041B054]
	pop	ebp
	ret
00413059                            CC CC CC CC CC CC CC          .......
00413060 CC CC CC CC CC CC CC CC CC CC CC CC CC CC CC CC ................

;; fn00413070: 00413070
fn00413070 proc
	push	ebp
	mov	ebp,esp
	sub	esp,00000324
	push	17
	call	00411348
	test	eax,eax
	jz	0041308B

l00413084:
	mov	ecx,00000002
	int	29

l0041308B:
	mov	[0041A250],eax
	mov	[0041A24C],ecx
	mov	[0041A248],edx
	mov	[0041A244],ebx
	mov	[0041A240],esi
	mov	[0041A23C],edi
	mov	[0041A268],ss
	mov	[0041A25C],cs
	mov	[0041A238],ds
	mov	[0041A234],es
	mov	[0041A230],fs
	mov	[0041A22C],gs
	pushf
	pop	dword ptr [0041A260]
	mov	eax,[ebp+00]
	mov	[0041A254],eax
	mov	eax,[ebp+04]
	mov	[0041A258],eax
	lea	eax,[ebp+08]
	mov	[0041A264],eax
	mov	eax,[ebp-00000324]
	mov	dword ptr [0041A1A0],00010001
	mov	eax,[0041A258]
	mov	[0041A15C],eax
	mov	dword ptr [0041A150],C0000409
	mov	dword ptr [0041A154],00000001
	mov	dword ptr [0041A160],00000001
	mov	ecx,00000004
	imul	edx,ecx,00
	mov	dword ptr [edx+0041A164],00000002
	mov	eax,00000004
	imul	ecx,eax,00
	mov	edx,[0041A000]
	mov	[ebp+ecx-08],edx
	mov	eax,00000004
	shl	eax,00
	mov	ecx,[0041A004]
	mov	[ebp+eax-08],ecx
	push	004184E8
	call	004111F9
	mov	esp,ebp
	pop	ebp
	ret
00413173          CC CC CC CC CC CC CC CC CC CC CC CC CC    .............
00413180 CC CC CC CC CC CC CC CC CC CC CC CC CC CC CC CC ................
00413190 CC CC CC CC CC CC CC CC CC CC CC CC CC CC CC CC ................
004131A0 CC CC CC CC CC CC CC CC CC CC CC CC CC CC CC CC ................
004131B0 CC CC CC CC CC CC CC CC CC CC CC CC CC CC CC CC ................
004131C0 55 8B EC 6A 08 E8 35 DF FF FF 5D C3 CC CC CC CC U..j..5...].....
004131D0 55 8B EC 81 EC 1C 03 00 00 6A 17 E8 68 E1 FF FF U........j..h...
004131E0 85 C0 74 05 8B 4D 08 CD 29 A3 50 A2 41 00 89 0D ..t..M..).P.A...
004131F0 4C A2 41 00 89 15 48 A2 41 00 89 1D 44 A2 41 00 L.A...H.A...D.A.
00413200 89 35 40 A2 41 00 89 3D 3C A2 41 00 66 8C 15 68 .5@.A..=<.A.f..h
00413210 A2 41 00 66 8C 0D 5C A2 41 00 66 8C 1D 38 A2 41 .A.f..\.A.f..8.A
00413220 00 66 8C 05 34 A2 41 00 66 8C 25 30 A2 41 00 66 .f..4.A.f.%0.A.f
00413230 8C 2D 2C A2 41 00 9C 8F 05 60 A2 41 00 8B 45 00 .-,.A....`.A..E.
00413240 A3 54 A2 41 00 8B 45 04 A3 58 A2 41 00 8D 45 08 .T.A..E..X.A..E.
00413250 A3 64 A2 41 00 8B 85 E4 FC FF FF A1 58 A2 41 00 .d.A........X.A.
00413260 A3 5C A1 41 00 C7 05 50 A1 41 00 09 04 00 C0 C7 .\.A...P.A......
00413270 05 54 A1 41 00 01 00 00 00 C7 05 60 A1 41 00 01 .T.A.......`.A..
00413280 00 00 00 B9 04 00 00 00 6B D1 00 8B 45 08 89 82 ........k...E...
00413290 64 A1 41 00 68 E8 84 41 00 E8 5B DF FF FF 8B E5 d.A.h..A..[.....
004132A0 5D C3 CC CC CC CC CC CC CC CC CC CC CC CC CC CC ]...............
004132B0 CC CC CC CC CC CC CC CC CC CC CC CC CC CC CC CC ................
004132C0 CC CC CC CC CC CC CC CC CC CC CC CC CC CC CC CC ................
004132D0 CC CC CC CC CC CC CC CC CC CC CC CC CC CC CC CC ................
004132E0 55 8B EC 81 EC 20 03 00 00 6A 17 E8 58 E0 FF FF U.... ...j..X...
004132F0 85 C0 74 05 8B 4D 08 CD 29 A3 50 A2 41 00 89 0D ..t..M..).P.A...
00413300 4C A2 41 00 89 15 48 A2 41 00 89 1D 44 A2 41 00 L.A...H.A...D.A.
00413310 89 35 40 A2 41 00 89 3D 3C A2 41 00 66 8C 15 68 .5@.A..=<.A.f..h
00413320 A2 41 00 66 8C 0D 5C A2 41 00 66 8C 1D 38 A2 41 .A.f..\.A.f..8.A
00413330 00 66 8C 05 34 A2 41 00 66 8C 25 30 A2 41 00 66 .f..4.A.f.%0.A.f
00413340 8C 2D 2C A2 41 00 9C 8F 05 60 A2 41 00 8B 45 00 .-,.A....`.A..E.
00413350 A3 54 A2 41 00 8B 45 04 A3 58 A2 41 00 8D 45 08 .T.A..E..X.A..E.
00413360 A3 64 A2 41 00 8B 85 E0 FC FF FF A1 58 A2 41 00 .d.A........X.A.
00413370 A3 5C A1 41 00 C7 05 50 A1 41 00 09 04 00 C0 C7 .\.A...P.A......
00413380 05 54 A1 41 00 01 00 00 00 83 7D 0C 00 76 0D 83 .T.A......}..v..
00413390 7D 10 00 75 07 C7 45 0C 00 00 00 00 83 7D 0C 0E }..u..E......}..
004133A0 76 09 8B 4D 0C 83 E9 01 89 4D 0C 8B 55 0C 83 C2 v..M.....M..U...
004133B0 01 89 15 60 A1 41 00 B8 04 00 00 00 6B C8 00 8B ...`.A......k...
004133C0 55 08 89 91 64 A1 41 00 C7 45 FC 00 00 00 00 EB U...d.A..E......
004133D0 09 8B 45 FC 83 C0 01 89 45 FC 8B 4D FC 3B 4D 0C ..E.....E..M.;M.
004133E0 73 15 8B 55 FC 8B 45 FC 8B 4D 10 8B 04 81 89 04 s..U..E..M......
004133F0 95 68 A1 41 00 EB DA 68 E8 84 41 00 E8 F8 DD FF .h.A...h..A.....
00413400 FF 8B E5 5D C3 CC CC CC CC CC CC CC CC CC CC CC ...]............
00413410 CC CC CC CC CC CC CC CC CC CC CC CC CC CC CC CC ................
00413420 CC CC CC CC CC CC CC CC CC CC CC CC CC CC CC CC ................
00413430 CC CC CC CC CC CC CC CC CC CC CC CC CC CC CC CC ................
00413440 CC CC CC CC CC CC CC CC CC CC CC CC CC CC CC CC ................

l00413450:
	mov	eax,[0041A50C]
	ret
00413456                   CC CC CC CC CC CC CC CC CC CC       ..........

l00413460:
	mov	eax,[0041A510]
	ret
00413466                   CC CC CC CC CC CC CC CC CC CC       ..........
00413470 55 8B EC 8B 45 08 83 F8 04 77 09 8B 04 85 F4 84 U...E....w......
00413480 41 00 5D C3 33 C0 5D C3 CC CC CC CC CC CC CC CC A.].3.].........
00413490 B8 05 00 00 00 C3 CC CC CC CC CC CC CC CC CC CC ................
004134A0 55 8B EC A1 0C A5 41 00 8B 4D 08 89 0D 0C A5 41 U.....A..M.....A
004134B0 00 C7 05 10 A5 41 00 00 00 00 00 5D C3 CC CC CC .....A.....]....
004134C0 CC CC CC CC CC CC CC CC CC CC CC CC CC CC CC CC ................
004134D0 55 8B EC A1 10 A5 41 00 8B 4D 08 89 0D 10 A5 41 U.....A..M.....A
004134E0 00 C7 05 0C A5 41 00 00 00 00 00 5D C3 CC CC CC .....A.....]....
004134F0 CC CC CC CC CC CC CC CC CC CC CC CC CC CC CC CC ................
00413500 55 8B EC 8B 55 08 83 FA 04 77 13 8B 04 95 0C A0 U...U....w......
00413510 41 00 8B 4D 0C 89 0C 95 0C A0 41 00 5D C3 83 C8 A..M......A.]...
00413520 FF 5D C3 CC CC CC CC CC CC CC CC CC CC CC CC CC .]..............
00413530 55 8B EC A1 00 A0 41 00 33 D2 B9 20 00 00 00 F7 U.....A.3.. ....
00413540 F1 52 8B 55 08 33 15 00 A0 41 00 52 E8 7B DC FF .R.U.3...A.R.{..
00413550 FF 83 C4 08 5D C3 CC CC CC CC CC CC CC CC CC CC ....]...........
00413560 55 8B EC A1 00 A0 41 00 33 D2 B9 20 00 00 00 F7 U.....A.3.. ....
00413570 F1 B8 20 00 00 00 2B C2 50 8B 4D 08 51 E8 4A DC .. ...+.P.M.Q.J.
00413580 FF FF 83 C4 08 33 05 00 A0 41 00 5D C3 CC CC CC .....3...A.]....
00413590 CC CC CC CC CC CC CC CC CC CC CC CC CC CC CC CC ................
004135A0 55 8B EC 8B 45 08 8B 4D 0C D3 C8 5D C3 CC CC CC U...E..M...]....
004135B0 55 8B EC E8 5C DA FF FF 50 E8 67 DD FF FF 83 C4 U...\...P.g.....
004135C0 04 5D C3 CC CC CC CC CC CC CC CC CC CC CC CC CC .]..............

;; fn004135D0: 004135D0
fn004135D0 proc
	push	ebp
	mov	ebp,esp
	sub	esp,18
	mov	eax,[ebp+08]
	mov	[ebp-0C],eax
	mov	ecx,[ebp-0C]
	mov	edx,[ebp-0C]
	add	edx,[ecx+3C]
	mov	[ebp-14],edx
	mov	eax,[ebp-14]
	mov	[ebp-08],eax
	mov	ecx,[ebp-08]
	movzx	edx,word ptr [ecx+14]
	mov	eax,[ebp-08]
	lea	ecx,[eax+edx+18]
	mov	[ebp-10],ecx
	mov	edx,[ebp-08]
	movzx	eax,word ptr [edx+06]
	imul	ecx,eax,28
	add	ecx,[ebp-10]
	mov	[ebp-18],ecx
	mov	edx,[ebp-10]
	mov	[ebp-04],edx
	jmp	00413620

l00413617:
	mov	eax,[ebp-04]
	add	eax,28
	mov	[ebp-04],eax

l00413620:
	mov	ecx,[ebp-04]
	cmp	ecx,[ebp-18]
	jz	0041364B

l00413628:
	mov	edx,[ebp-04]
	mov	eax,[ebp+0C]
	cmp	eax,[edx+0C]
	jc	00413649

l00413633:
	mov	ecx,[ebp-04]
	mov	edx,[ecx+0C]
	mov	eax,[ebp-04]
	add	edx,[eax+08]
	cmp	[ebp+0C],edx
	jnc	00413649

l00413644:
	mov	eax,[ebp-04]
	jmp	0041364D

l00413649:
	jmp	00413617

l0041364B:
	xor	eax,eax

l0041364D:
	mov	esp,ebp
	pop	ebp
	ret
00413651    CC CC CC CC CC CC CC CC CC CC CC CC CC CC CC  ...............
00413660 CC CC CC CC CC CC CC CC CC CC CC CC CC CC CC CC ................
00413670 CC CC CC CC CC CC CC CC CC CC CC CC CC CC CC CC ................
00413680 55 8B EC E8 9E DB FF FF 5D C3 CC CC CC CC CC CC U.......].......

;; fn00413690: 00413690
fn00413690 proc
	push	ebp
	mov	ebp,esp
	sub	esp,10
	cmp	dword ptr [ebp+08],00
	jnz	004136A0

l0041369C:
	xor	al,al
	jmp	004136F5

l004136A0:
	mov	eax,[ebp+08]
	mov	[ebp-04],eax
	mov	ecx,[ebp-04]
	movzx	edx,word ptr [ecx]
	cmp	edx,00005A4D
	jz	004136B8

l004136B4:
	xor	al,al
	jmp	004136F5

l004136B8:
	mov	eax,[ebp-04]
	mov	ecx,[ebp-04]
	add	ecx,[eax+3C]
	mov	[ebp-0C],ecx
	mov	edx,[ebp-0C]
	mov	[ebp-08],edx
	mov	eax,[ebp-08]
	cmp	dword ptr [eax],00004550
	jz	004136D9

l004136D5:
	xor	al,al
	jmp	004136F5

l004136D9:
	mov	ecx,[ebp-08]
	add	ecx,18
	mov	[ebp-10],ecx
	mov	edx,[ebp-10]
	movzx	eax,word ptr [edx]
	cmp	eax,0000010B
	jz	004136F3

l004136EF:
	xor	al,al
	jmp	004136F5

l004136F3:
	mov	al,01

l004136F5:
	mov	esp,ebp
	pop	ebp
	ret
004136F9                            CC CC CC CC CC CC CC          .......
00413700 CC CC CC CC CC CC CC CC CC CC CC CC CC CC CC CC ................
00413710 CC CC CC CC CC CC CC CC CC CC CC CC CC CC CC CC ................

l00413720:
	push	ebp
	mov	ebp,esp
	mov	eax,fs:[00000018]
	pop	ebp
	ret
0041372B                                  CC CC CC CC CC            .....

l00413730:
	push	ebp
	mov	ebp,esp
	sub	esp,08
	call	00411073
	test	eax,eax
	jnz	00413743

l0041373F:
	xor	al,al
	jmp	00413775

l00413743:
	call	00411082
	mov	eax,[eax+04]
	mov	[ebp-04],eax

l0041374E:
	mov	ecx,[ebp-04]
	mov	edx,0041A538
	xor	eax,eax
	lock
	cmpxchg	[edx],ecx
	mov	[ebp-08],eax
	cmp	dword ptr [ebp-08],00
	jz	00413773

l00413765:
	mov	eax,[ebp-04]
	cmp	eax,[ebp-08]
	jnz	00413771

l0041376D:
	mov	al,01
	jmp	00413775

l00413771:
	jmp	0041374E

l00413773:
	xor	al,al

l00413775:
	mov	esp,ebp
	pop	ebp
	ret
00413779                            CC CC CC CC CC CC CC          .......
00413780 CC CC CC CC CC CC CC CC CC CC CC CC CC CC CC CC ................
00413790 55 8B EC E8 DB D8 FF FF 85 C0 74 07 E8 95 D9 FF U.........t.....
004137A0 FF EB 12 E8 DD DA FF FF 85 C0 74 04 32 C0 EB 07 ..........t.2...
004137B0 E8 98 DB FF FF B0 01 5D C3 CC CC CC CC CC CC CC .......]........
004137C0 CC CC CC CC CC CC CC CC CC CC CC CC CC CC CC CC ................
004137D0 55 8B EC 6A 00 E8 83 DA FF FF 83 C4 04 0F B6 C0 U..j............
004137E0 85 C0 75 04 32 C0 EB 02 B0 01 5D C3 CC CC CC CC ..u.2.....].....
004137F0 CC CC CC CC CC CC CC CC CC CC CC CC CC CC CC CC ................
00413800 55 8B EC E8 D2 DA FF FF 0F B6 C0 85 C0 75 04 32 U............u.2
00413810 C0 EB 17 E8 FB D8 FF FF 0F B6 C8 85 C9 75 09 E8 .............u..
00413820 72 D8 FF FF 32 C0 EB 02 B0 01 5D C3 CC CC CC CC r...2.....].....
00413830 CC CC CC CC CC CC CC CC CC CC CC CC CC CC CC CC ................
00413840 55 8B EC E8 2A D9 FF FF E8 49 D8 FF FF B0 01 5D U...*....I.....]
00413850 C3 CC CC CC CC CC CC CC CC CC CC CC CC CC CC CC ................
00413860 55 8B EC 51 E8 0A D8 FF FF 85 C0 75 21 83 7D 0C U..Q.......u!.}.
00413870 01 75 1B 8B 45 10 50 6A 00 8B 4D 08 51 8B 55 14 .u..E.Pj..M.Q.U.
00413880 89 55 FC 8B 4D FC E8 81 DA FF FF FF 55 FC 8B 45 .U..M.......U..E
00413890 1C 50 8B 4D 18 51 E8 FE D9 FF FF 83 C4 08 8B E5 .P.M.Q..........
004138A0 5D C3 CC CC CC CC CC CC CC CC CC CC CC CC CC CC ]...............
004138B0 CC CC CC CC CC CC CC CC CC CC CC CC CC CC CC CC ................
004138C0 55 8B EC E8 AB D7 FF FF 85 C0 74 0F 68 18 A5 41 U.........t.h..A
004138D0 00 E8 C7 DA FF FF 83 C4 04 EB 0E E8 27 DA FF FF ............'...
004138E0 85 C0 75 05 E8 D0 D7 FF FF 5D C3 CC CC CC CC CC ..u......]......
004138F0 CC CC CC CC CC CC CC CC CC CC CC CC CC CC CC CC ................
00413900 55 8B EC 6A 00 E8 0E D8 FF FF 83 C4 04 E8 83 D8 U..j............
00413910 FF FF 5D C3 CC CC CC CC CC CC CC CC CC CC CC CC ..].............

;; fn00413920: 00413920
fn00413920 proc
	push	ebp
	mov	ebp,esp
	cmp	dword ptr [ebp+08],00
	jnz	00413930

l00413929:
	mov	byte ptr [0041A53C],01

l00413930:
	call	00411136
	call	00411258
	movzx	eax,al
	test	eax,eax
	jnz	00413945

l00413941:
	xor	al,al
	jmp	00413961

l00413945:
	call	00411023
	movzx	ecx,al
	test	ecx,ecx
	jnz	0041395F

l00413951:
	push	00
	call	00411235
	add	esp,04
	xor	al,al
	jmp	00413961

l0041395F:
	mov	al,01

l00413961:
	pop	ebp
	ret
00413963          CC CC CC CC CC CC CC CC CC CC CC CC CC    .............
00413970 CC CC CC CC CC CC CC CC CC CC CC CC CC CC CC CC ................
00413980 55 8B EC 83 EC 1C 0F B6 05 30 A5 41 00 85 C0 74 U........0.A...t
00413990 07 B0 01 E9 BF 00 00 00 83 7D 08 00 74 0D 83 7D .........}..t..}
004139A0 08 01 74 07 6A 05 E8 C3 D6 FF FF E8 C3 D6 FF FF ..t.j...........
004139B0 85 C0 74 35 83 7D 08 00 75 2F 68 18 A5 41 00 E8 ..t5.}..u/h..A..
004139C0 49 D8 FF FF 83 C4 04 85 C0 74 07 32 C0 E9 85 00 I........t.2....
004139D0 00 00 68 24 A5 41 00 E8 31 D8 FF FF 83 C4 04 85 ..h$.A..1.......
004139E0 C0 74 04 32 C0 EB 70 EB 65 6A FF E8 53 D9 FF FF .t.2..p.ej..S...
004139F0 83 C4 04 89 45 FC 8B 4D FC 89 4D F0 8B 55 FC 89 ....E..M..M..U..
00413A00 55 F4 8B 45 FC 89 45 F8 8B 4D F0 89 0D 18 A5 41 U..E..E..M.....A
00413A10 00 8B 55 F4 89 15 1C A5 41 00 8B 45 F8 A3 20 A5 ..U.....A..E.. .
00413A20 41 00 8B 4D FC 89 4D E4 8B 55 FC 89 55 E8 8B 45 A..M..M..U..U..E
00413A30 FC 89 45 EC 8B 4D E4 89 0D 24 A5 41 00 8B 55 E8 ..E..M...$.A..U.
00413A40 89 15 28 A5 41 00 8B 45 EC A3 2C A5 41 00 C6 05 ..(.A..E..,.A...
00413A50 30 A5 41 00 01 B0 01 8B E5 5D C3 CC CC CC CC CC 0.A......]......
00413A60 CC CC CC CC CC CC CC CC CC CC CC CC CC CC CC CC ................
00413A70 CC CC CC CC CC CC CC CC CC CC CC CC CC CC CC CC ................
00413A80 CC CC CC CC CC CC CC CC CC CC CC CC CC CC CC CC ................
00413A90 CC CC CC CC CC CC CC CC CC CC CC CC CC CC CC CC ................

l00413AA0:
	push	ebp
	mov	ebp,esp
	push	FE
	push	00419218
	push	004144B0
	mov	eax,fs:[00000000]
	push	eax
	add	esp,D8
	push	ebx
	push	esi
	push	edi
	mov	eax,[0041A000]
	xor	[ebp-08],eax
	xor	eax,ebp
	push	eax
	lea	eax,[ebp-10]
	mov	fs:[00000000],eax
	mov	[ebp-18],esp
	mov	eax,[ebp+08]
	mov	[ebp-30],eax
	mov	dword ptr [ebp-24],00400000
	mov	dword ptr [ebp-04],00000000
	mov	ecx,[ebp-24]
	push	ecx
	call	00413690
	add	esp,04
	movzx	edx,al
	test	edx,edx
	jnz	00413B0D

l00413AFA:
	mov	byte ptr [ebp-19],00
	mov	dword ptr [ebp-04],FFFFFFFE
	mov	al,[ebp-19]
	jmp	00413BB7

l00413B0D:
	mov	eax,[ebp-30]
	sub	eax,[ebp-24]
	mov	[ebp-34],eax
	mov	ecx,[ebp-34]
	push	ecx
	mov	edx,[ebp-24]
	push	edx
	call	004135D0
	add	esp,08
	mov	[ebp-28],eax
	cmp	dword ptr [ebp-28],00
	jnz	00413B3F

l00413B2F:
	mov	byte ptr [ebp-1A],00
	mov	dword ptr [ebp-04],FFFFFFFE
	mov	al,[ebp-1A]
	jmp	00413BB7

l00413B3F:
	mov	eax,[ebp-28]
	mov	ecx,[eax+24]
	and	ecx,80000000
	jz	00413B5D

l00413B4D:
	mov	byte ptr [ebp-1B],00
	mov	dword ptr [ebp-04],FFFFFFFE
	mov	al,[ebp-1B]
	jmp	00413BB7

l00413B5D:
	mov	byte ptr [ebp-1C],01
	mov	dword ptr [ebp-04],FFFFFFFE
	mov	al,[ebp-1C]
	jmp	00413BB7
00413B6D                                        C7 45 FC              .E.
00413B70 FE FF FF FF EB 41 8B 55 EC 8B 02 8B 08 89 4D C8 .....A.U......M.
00413B80 81 7D C8 05 00 00 C0 75 09 C7 45 D4 01 00 00 00 .}.....u..E.....
00413B90 EB 07 C7 45 D4 00 00 00 00 8B 45 D4 C3 8B 65 E8 ...E......E...e.
00413BA0 C6 45 E3 00 C7 45 FC FE FF FF FF 8A 45 E3 EB 07 .E...E......E...
00413BB0 C7 45 FC FE FF FF FF                            .E.....        

l00413BB7:
	mov	ecx,[ebp-10]
	mov	fs:[00000000],ecx
	pop	ecx
	pop	edi
	pop	esi
	pop	ebx
	mov	esp,ebp
	pop	ebp
	ret
00413BC9                            CC CC CC CC CC CC CC          .......
00413BD0 CC CC CC CC CC CC CC CC CC CC CC CC CC CC CC CC ................
00413BE0 CC CC CC CC CC CC CC CC CC CC CC CC CC CC CC CC ................
00413BF0 CC CC CC CC CC CC CC CC CC CC CC CC CC CC CC CC ................
00413C00 CC CC CC CC CC CC CC CC CC CC CC CC CC CC CC CC ................
00413C10 CC CC CC CC CC CC CC CC CC CC CC CC CC CC CC CC ................

l00413C20:
	push	ebp
	mov	ebp,esp
	call	00411073
	test	eax,eax
	jnz	00413C2E

l00413C2C:
	jmp	00413C41

l00413C2E:
	movzx	eax,byte ptr [ebp+08]
	test	eax,eax
	jz	00413C38

l00413C36:
	jmp	00413C41

l00413C38:
	xor	ecx,ecx
	mov	edx,0041A538
	xchg	[edx],ecx

l00413C41:
	pop	ebp
	ret
00413C43          CC CC CC CC CC CC CC CC CC CC CC CC CC    .............

l00413C50:
	push	ebp
	mov	ebp,esp
	movzx	eax,byte ptr [0041A53C]
	test	eax,eax
	jz	00413C6A

l00413C5E:
	movzx	ecx,byte ptr [ebp+0C]
	test	ecx,ecx
	jz	00413C6A

l00413C66:
	mov	al,01
	jmp	00413C86

l00413C6A:
	movzx	edx,byte ptr [ebp+08]
	push	edx
	call	0041101E
	add	esp,04
	movzx	eax,byte ptr [ebp+08]
	push	eax
	call	00411235
	add	esp,04
	mov	al,01

l00413C86:
	pop	ebp
	ret
00413C88                         CC CC CC CC CC CC CC CC         ........
00413C90 CC CC CC CC CC CC CC CC CC CC CC CC CC CC CC CC ................
00413CA0 55 8B EC 83 EC 0C A1 18 A5 41 00 50 E8 9E D4 FF U........A.P....
00413CB0 FF 83 C4 04 89 45 F4 83 7D F4 FF 75 26 8B 4D 08 .....E..}..u&.M.
00413CC0 51 E8 AF D6 FF FF 83 C4 04 85 C0 75 08 8B 55 08 Q..........u..U.
00413CD0 89 55 FC EB 07 C7 45 FC 00 00 00 00 8B 45 FC EB .U....E......E..
00413CE0 29 EB 27 8B 45 08 50 68 18 A5 41 00 E8 D0 D5 FF ).'.E.Ph..A.....
00413CF0 FF 83 C4 08 85 C0 75 08 8B 4D 08 89 4D F8 EB 07 ......u..M..M...
00413D00 C7 45 F8 00 00 00 00 8B 45 F8 8B E5 5D C3 CC CC .E......E...]...
00413D10 CC CC CC CC CC CC CC CC CC CC CC CC CC CC CC CC ................
00413D20 CC CC CC CC CC CC CC CC CC CC CC CC CC CC CC CC ................
00413D30 55 8B EC 83 EC 08 A1 24 A5 41 00 50 E8 0E D4 FF U......$.A.P....
00413D40 FF 83 C4 04 89 45 FC 83 7D FC FF 75 10 8B 4D 08 .....E..}..u..M.
00413D50 51 E8 44 D4 FF FF 83 C4 04 EB 19 EB 17 8B 55 08 Q.D...........U.
00413D60 89 55 F8 8B 45 F8 50 68 24 A5 41 00 E8 50 D5 FF .U..E.Ph$.A..P..
00413D70 FF 83 C4 08 8B E5 5D C3 CC CC CC CC CC CC CC CC ......].........
00413D80 CC CC CC CC CC CC CC CC CC CC CC CC CC CC CC CC ................
00413D90 55 8B EC 51 8B 45 08 50 E8 ED D4 FF FF 83 C4 04 U..Q.E.P........
00413DA0 85 C0 74 09 C7 45 FC 00 00 00 00 EB 07 C7 45 FC ..t..E........E.
00413DB0 FF FF FF FF 8B 45 FC 8B E5 5D C3 CC CC CC CC CC .....E...]......
00413DC0 CC CC CC CC CC CC CC CC CC CC CC CC CC CC CC CC ................

;; fn00413DD0: 00413DD0
fn00413DD0 proc
	push	ebp
	mov	ebp,esp
	sub	esp,14
	mov	dword ptr [ebp-0C],00000000
	mov	dword ptr [ebp-08],00000000
	lea	eax,[ebp-0C]
	push	eax
	call	dword ptr [0041B040]
	mov	ecx,[ebp-0C]
	mov	[ebp-04],ecx
	mov	edx,[ebp-04]
	xor	edx,[ebp-08]
	mov	[ebp-04],edx
	call	dword ptr [0041B044]
	xor	eax,[ebp-04]
	mov	[ebp-04],eax
	call	dword ptr [0041B048]
	xor	eax,[ebp-04]
	mov	[ebp-04],eax
	lea	eax,[ebp-14]
	push	eax
	call	dword ptr [0041B04C]
	mov	ecx,[ebp-04]
	xor	ecx,[ebp-14]
	mov	[ebp-04],ecx
	mov	edx,[ebp-04]
	xor	edx,[ebp-10]
	mov	[ebp-04],edx
	mov	eax,[ebp-04]
	lea	ecx,[ebp-04]
	xor	eax,ecx
	mov	[ebp-04],eax
	mov	eax,[ebp-04]
	mov	esp,ebp
	pop	ebp
	ret
00413E43          CC CC CC CC CC CC CC CC CC CC CC CC CC    .............
00413E50 CC CC CC CC CC CC CC CC CC CC CC CC CC CC CC CC ................

;; fn00413E60: 00413E60
fn00413E60 proc
	push	ebp
	mov	ebp,esp
	push	ecx
	cmp	dword ptr [0041A000],BB40E64E
	jz	00413E8C

l00413E70:
	mov	eax,[0041A000]
	and	eax,FFFF0000
	jz	00413E8C

l00413E7C:
	mov	ecx,[0041A000]
	not	ecx
	mov	[0041A004],ecx
	jmp	00413ED6

l00413E8C:
	call	00413DD0
	mov	[ebp-04],eax
	cmp	dword ptr [ebp-04],BB40E64E
	jnz	00413EA6

l00413E9D:
	mov	dword ptr [ebp-04],BB40E64F
	jmp	00413EC2

l00413EA6:
	mov	edx,[ebp-04]
	and	edx,FFFF0000
	jnz	00413EC2

l00413EB1:
	mov	eax,[ebp-04]
	or	eax,00004711
	shl	eax,10
	or	eax,[ebp-04]
	mov	[ebp-04],eax

l00413EC2:
	mov	ecx,[ebp-04]
	mov	[0041A000],ecx
	mov	edx,[ebp-04]
	not	edx
	mov	[0041A004],edx

l00413ED6:
	mov	esp,ebp
	pop	ebp
	ret
00413EDA                               CC CC CC CC CC CC           ......
00413EE0 CC CC CC CC CC CC CC CC CC CC CC CC CC CC CC CC ................
00413EF0 CC CC CC CC CC CC CC CC CC CC CC CC CC CC CC CC ................
00413F00 55 8B EC 33 C0 5D C3 CC CC CC CC CC CC CC CC CC U..3.]..........
00413F10 55 8B EC B8 01 00 00 00 5D C3 CC CC CC CC CC CC U.......].......
00413F20 55 8B EC 33 C0 5D C3 CC CC CC CC CC CC CC CC CC U..3.]..........
00413F30 55 8B EC B8 00 40 00 00 5D C3 CC CC CC CC CC CC U....@..].......
00413F40 55 8B EC 33 C0 5D C3 CC CC CC CC CC CC CC CC CC U..3.]..........
00413F50 55 8B EC 33 C0 5D C3 CC CC CC CC CC CC CC CC CC U..3.]..........
00413F60 55 8B EC 68 48 A5 41 00 FF 15 3C B0 41 00 5D C3 U..hH.A...<.A.].
00413F70 CC CC CC CC CC CC CC CC CC CC CC CC CC CC CC CC ................
00413F80 55 8B EC 68 48 A5 41 00 E8 77 D1 FF FF 83 C4 04 U..hH.A..w......
00413F90 5D C3 CC CC CC CC CC CC CC CC CC CC CC CC CC CC ]...............
00413FA0 55 8B EC B0 01 5D C3 CC CC CC CC CC CC CC CC CC U....]..........
00413FB0 55 8B EC 68 00 00 03 00 68 00 00 01 00 6A 00 E8 U..h....h....j..
00413FC0 A3 D2 FF FF 83 C4 0C 85 C0 74 07 6A 07 E8 9C D0 .........t.j....
00413FD0 FF FF 5D C3 CC CC CC CC CC CC CC CC CC CC CC CC ..].............
00413FE0 55 8B EC 5D C3 CC CC CC CC CC CC CC CC CC CC CC U..]............
00413FF0 55 8B EC 5D C3 CC CC CC CC CC CC CC CC CC CC CC U..]............
00414000 55 8B EC B8 58 A5 41 00 5D C3 CC CC CC CC CC CC U...X.A.].......
00414010 55 8B EC 83 EC 08 E8 7D D3 FF FF 89 45 FC 8B 45 U......}....E..E
00414020 FC 8B 08 83 C9 04 8B 50 04 8B 45 FC 89 08 89 50 .......P..E....P
00414030 04 E8 F5 D1 FF FF 89 45 F8 8B 4D F8 8B 11 83 CA .......E..M.....
00414040 02 8B 41 04 8B 4D F8 89 11 89 41 04 8B E5 5D C3 ..A..M....A...].
00414050 CC CC CC CC CC CC CC CC CC CC CC CC CC CC CC CC ................
00414060 55 8B EC 51 83 3D 28 A0 41 00 00 75 09 C7 45 FC U..Q.=(.A..u..E.
00414070 01 00 00 00 EB 07 C7 45 FC 00 00 00 00 8B 45 FC .......E......E.
00414080 8B E5 5D C3 CC CC CC CC CC CC CC CC CC CC CC CC ..].............

l00414090:
	push	ebp
	mov	ebp,esp
	mov	eax,0041A588
	pop	ebp
	ret
0041409A                               CC CC CC CC CC CC           ......

l004140A0:
	push	ebp
	mov	ebp,esp
	mov	eax,0041A57C
	pop	ebp
	ret
004140AA                               CC CC CC CC CC CC           ......

l004140B0:
	push	ebp
	mov	ebp,esp
	sub	esp,0000032C
	push	17
	call	00411348
	test	eax,eax
	jz	004140C9

l004140C4:
	mov	ecx,[ebp+08]
	int	29

l004140C9:
	push	03
	call	00411037
	add	esp,04
	push	000002CC
	push	00
	lea	eax,[ebp-0000032C]
	push	eax
	call	004110CD
	add	esp,0C
	mov	[ebp-0000027C],eax
	mov	[ebp-00000280],ecx
	mov	[ebp-00000284],edx
	mov	[ebp-00000288],ebx
	mov	[ebp-0000028C],esi
	mov	[ebp-00000290],edi
	mov	[ebp-00000264],ss
	mov	[ebp-00000270],cs
	mov	[ebp-00000294],ds
	mov	[ebp-00000298],es
	mov	[ebp-0000029C],fs
	mov	[ebp-000002A0],gs
	pushf
	pop	dword ptr [ebp-0000026C]
	mov	dword ptr [ebp-0000032C],00010001
	mov	ecx,[ebp+04]
	mov	[ebp-00000274],ecx
	lea	edx,[ebp+04]
	mov	[ebp-00000268],edx
	lea	eax,[ebp+04]
	mov	ecx,[eax-04]
	mov	[ebp-00000278],ecx
	push	50
	push	00
	lea	edx,[ebp-60]
	push	edx
	call	004110CD
	add	esp,0C
	mov	dword ptr [ebp-60],40000015
	mov	dword ptr [ebp-5C],00000001
	mov	eax,[ebp+04]
	mov	[ebp-54],eax
	call	dword ptr [0041B070]
	cmp	eax,01
	jnz	0041419B

l00414195:
	mov	byte ptr [ebp-01],01
	jmp	0041419F

l0041419B:
	mov	byte ptr [ebp-01],00

l0041419F:
	mov	cl,[ebp-01]
	mov	[ebp-02],cl
	lea	edx,[ebp-60]
	mov	[ebp-10],edx
	lea	eax,[ebp-0000032C]
	mov	[ebp-0C],eax
	push	00
	call	dword ptr [0041B05C]
	lea	ecx,[ebp-10]
	push	ecx
	call	dword ptr [0041B060]
	mov	[ebp-08],eax
	cmp	dword ptr [ebp-08],00
	jnz	004141E1

l004141CF:
	movzx	edx,byte ptr [ebp-02]
	test	edx,edx
	jnz	004141E1

l004141D7:
	push	03
	call	00411037
	add	esp,04

l004141E1:
	mov	esp,ebp
	pop	ebp
	ret
004141E5                CC CC CC CC CC CC CC CC CC CC CC      ...........
004141F0 CC CC CC CC CC CC CC CC CC CC CC CC CC CC CC CC ................
00414200 CC CC CC CC CC CC CC CC CC CC CC CC CC CC CC CC ................
00414210 CC CC CC CC CC CC CC CC CC CC CC CC CC CC CC CC ................
00414220 CC CC CC CC CC CC CC CC CC CC CC CC CC CC CC CC ................
00414230 CC CC CC CC CC CC CC CC CC CC CC CC CC CC CC CC ................
00414240 55 8B EC 83 EC 48 6A 44 6A 00 8D 45 B8 50 E8 7A U....HjDj..E.P.z
00414250 CE FF FF 83 C4 0C 8D 4D B8 51 FF 15 38 B0 41 00 .......M.Q..8.A.
00414260 8B 55 E4 83 E2 01 74 09 0F B7 45 E8 89 45 FC EB .U....t...E..E..
00414270 07 C7 45 FC 0A 00 00 00 66 8B 45 FC 8B E5 5D C3 ..E.....f.E...].
00414280 CC CC CC CC CC CC CC CC CC CC CC CC CC CC CC CC ................
00414290 55 8B EC 33 C0 5D C3 CC CC CC CC CC CC CC CC CC U..3.]..........

l004142A0:
	push	ebp
	mov	ebp,esp
	sub	esp,08
	push	00
	call	dword ptr [0041B034]
	mov	[ebp-04],eax
	cmp	dword ptr [ebp-04],00
	jnz	004142BB

l004142B7:
	xor	al,al
	jmp	0041431F

l004142BB:
	mov	eax,[ebp-04]
	movzx	ecx,word ptr [eax]
	cmp	ecx,00005A4D
	jz	004142CD

l004142C9:
	xor	al,al
	jmp	0041431F

l004142CD:
	mov	edx,[ebp-04]
	mov	eax,[ebp-04]
	add	eax,[edx+3C]
	mov	[ebp-08],eax
	mov	ecx,[ebp-08]
	cmp	dword ptr [ecx],00004550
	jz	004142E8

l004142E4:
	xor	al,al
	jmp	0041431F

l004142E8:
	mov	edx,[ebp-08]
	movzx	eax,word ptr [edx+18]
	cmp	eax,0000010B
	jz	004142FA

l004142F6:
	xor	al,al
	jmp	0041431F

l004142FA:
	mov	ecx,[ebp-08]
	cmp	dword ptr [ecx+74],0E
	ja	00414307

l00414303:
	xor	al,al
	jmp	0041431F

l00414307:
	mov	edx,00000008
	imul	eax,edx,0E
	mov	ecx,[ebp-08]
	cmp	dword ptr [ecx+eax+78],00
	jnz	0041431D

l00414319:
	xor	al,al
	jmp	0041431F

l0041431D:
	mov	al,01

l0041431F:
	mov	esp,ebp
	pop	ebp
	ret
00414323          CC CC CC CC CC CC CC CC CC CC CC CC CC    .............
00414330 CC CC CC CC CC CC CC CC CC CC CC CC CC CC CC CC ................
00414340 CC CC CC CC CC CC CC CC CC CC CC CC CC CC CC CC ................
00414350 55 8B EC 68 63 11 41 00 FF 15 5C B0 41 00 5D C3 U..hc.A...\.A.].
00414360 CC CC CC CC CC CC CC CC CC CC CC CC CC CC CC CC ................
00414370 55 8B EC 51 8B 45 08 8B 08 89 4D FC 8B 55 FC 81 U..Q.E....M..U..
00414380 3A 63 73 6D E0 75 3E 8B 45 FC 83 78 10 03 75 35 :csm.u>.E..x..u5
00414390 8B 4D FC 81 79 14 20 05 93 19 74 24 8B 55 FC 81 .M..y. ...t$.U..
004143A0 7A 14 21 05 93 19 74 18 8B 45 FC 81 78 14 22 05 z.!...t..E..x.".
004143B0 93 19 74 0C 8B 4D FC 81 79 14 00 40 99 01 75 05 ..t..M..y..@..u.
004143C0 E8 84 CE FF FF 33 C0 8B E5 5D C2 04 00 CC CC CC .....3...]......
004143D0 CC CC CC CC CC CC CC CC CC CC CC CC CC CC CC CC ................
004143E0 CC CC CC CC CC CC CC CC CC CC CC CC CC CC CC CC ................

;; fn004143F0: 004143F0
fn004143F0 proc
	push	ebp
	mov	ebp,esp
	mov	dword ptr [0041A564],00000000
	pop	ebp
	ret
004143FF                                              CC                .
00414400 CC CC CC CC CC CC CC CC CC CC CC CC CC CC CC CC ................
00414410 56 BE A4 8B 41 00 8B C6 3D A8 8D 41 00 73 1C 57 V...A...=..A.s.W
00414420 8B 3E 85 FF 74 09 8B CF E8 DF CE FF FF FF D7 83 .>..t...........
00414430 C6 04 81 FE A8 8D 41 00 72 E6 5F 5E C3 CC CC CC ......A.r._^....
00414440 CC CC CC CC CC CC CC CC CC CC CC CC CC CC CC CC ................
00414450 56 BE B0 8E 41 00 8B C6 3D B4 90 41 00 73 1C 57 V...A...=..A.s.W
00414460 8B 3E 85 FF 74 09 8B CF E8 9F CE FF FF FF D7 83 .>..t...........
00414470 C6 04 81 FE B4 90 41 00 72 E6 5F 5E C3 CC CC CC ......A.r._^....
00414480 CC CC CC CC CC CC CC CC CC CC CC CC CC CC CC CC ................

l00414490:
	push	ebp
	mov	ebp,esp
	push	ecx
	mov	[ebp-04],ecx
	mov	ecx,[ebp-04]
	call	dword ptr [0041C000]
	mov	esp,ebp
	pop	ebp
	ret
004144A4             CC CC CC CC CC CC CC CC CC CC CC CC     ............
004144B0 55 8B EC 8B 45 14 50 8B 4D 10 51 8B 55 0C 52 8B U...E.P.M.Q.U.R.
004144C0 45 08 50 68 B2 12 41 00 68 00 A0 41 00 E8 BA CB E.Ph..A.h..A....
004144D0 FF FF 83 C4 18 5D C3 CC CC CC CC CC CC CC CC CC .....]..........

;; fn004144E0: 004144E0
fn004144E0 proc
	push	ebp
	mov	ebp,esp
	sub	esp,00000414
	mov	eax,[0041A000]
	xor	eax,ebp
	mov	[ebp-04],eax
	cmp	byte ptr [0041A56C],00
	jnz	00414610

l00414500:
	mov	byte ptr [0041A56C],01
	call	00414670
	test	eax,eax
	jnz	00414612

l00414514:
	push	004185FC
	call	004113C5
	add	esp,04
	test	eax,eax
	jz	0041459D

l00414525:
	push	00000104
	lea	ecx,[ebp-00000414]
	push	ecx
	push	eax
	call	00411339
	add	esp,0C
	test	eax,eax
	jz	0041459D

l0041453E:
	push	00000104
	lea	eax,[ebp-0000020C]
	push	eax
	lea	eax,[ebp-00000414]
	push	eax
	call	00414990
	add	esp,0C
	test	eax,eax
	jz	0041459D

l0041455D:
	push	00000900
	lea	eax,[ebp-0000020C]
	push	00
	push	eax
	call	004113AC
	add	esp,0C
	test	eax,eax
	jnz	00414612

l0041457B:
	call	dword ptr [0041B010]
	cmp	eax,57
	jnz	0041459D

l00414586:
	push	08
	lea	eax,[ebp-0000020C]
	push	00
	push	eax
	call	004113AC
	add	esp,0C
	test	eax,eax
	jnz	00414612

l0041459D:
	push	00000A00
	push	00
	push	004187AC
	call	004113AC
	add	esp,0C
	test	eax,eax
	jnz	00414612

l004145B5:
	call	dword ptr [0041B010]
	cmp	eax,57
	jnz	00414610

l004145C0:
	push	00000104
	lea	eax,[ebp-00000414]
	push	eax
	push	00
	call	00411339
	add	esp,0C
	test	eax,eax
	jz	00414610

l004145DA:
	push	00000104
	lea	eax,[ebp-0000020C]
	push	eax
	lea	eax,[ebp-00000414]
	push	eax
	call	00414990
	add	esp,0C
	test	eax,eax
	jz	00414610

l004145F9:
	push	08
	lea	eax,[ebp-0000020C]
	push	00
	push	eax
	call	004113AC
	add	esp,0C
	test	eax,eax
	jnz	00414612

l00414610:
	xor	eax,eax

l00414612:
	mov	ecx,[ebp-04]
	xor	ecx,ebp
	call	004112B2
	mov	esp,ebp
	pop	ebp
	ret
00414620 CC CC CC CC CC CC CC CC CC CC CC CC CC CC CC CC ................
00414630 CC CC CC CC CC CC CC CC CC CC CC CC CC CC CC CC ................
00414640 CC CC CC CC CC CC CC CC CC CC CC CC CC CC CC CC ................
00414650 CC CC CC CC CC CC CC CC CC CC CC CC CC CC CC CC ................
00414660 CC CC CC CC CC CC CC CC CC CC CC CC CC CC CC CC ................

;; fn00414670: 00414670
fn00414670 proc
	push	ebp
	mov	ebp,esp
	sub	esp,0000021C
	mov	eax,[0041A000]
	xor	eax,ebp
	mov	[ebp-04],eax
	push	edi
	push	00000800
	push	00
	push	00418630
	call	004113AC
	mov	edi,eax
	add	esp,0C
	test	edi,edi
	jnz	004146E8

l0041469E:
	push	00000800
	push	eax
	push	00418688
	call	004113AC
	mov	edi,eax
	add	esp,0C
	test	edi,edi
	jnz	004146E8

l004146B7:
	call	dword ptr [0041B010]
	cmp	eax,57
	jnz	004146D7

l004146C2:
	push	edi
	push	edi
	push	00418688
	call	004113AC
	mov	edi,eax
	add	esp,0C
	test	edi,edi
	jnz	004146E8

l004146D7:
	xor	eax,eax
	pop	edi
	mov	ecx,[ebp-04]
	xor	ecx,ebp
	call	004112B2
	mov	esp,ebp
	pop	ebp
	ret

l004146E8:
	push	esi
	push	004186A8
	push	edi
	call	dword ptr [0041B074]
	mov	esi,eax
	test	esi,esi
	jnz	0041470B

l004146FB:
	pop	esi
	pop	edi
	mov	ecx,[ebp-04]
	xor	ecx,ebp
	call	004112B2
	mov	esp,ebp
	pop	ebp
	ret

l0041470B:
	push	ebx
	push	004186B8
	push	edi
	call	dword ptr [0041B074]
	mov	ebx,eax
	test	ebx,ebx
	jz	0041475D

l0041471E:
	push	004186CC
	push	edi
	call	dword ptr [0041B074]
	mov	[ebp-00000218],eax
	test	eax,eax
	jz	0041475D

l00414734:
	lea	eax,[ebp-00000210]
	mov	ecx,esi
	push	eax
	push	01
	push	00
	push	004186E0
	push	80000002
	call	0041130C
	call	esi
	test	eax,eax
	jz	00414770

l00414756:
	push	edi
	call	dword ptr [0041B020]

l0041475D:
	pop	ebx
	pop	esi
	xor	eax,eax
	pop	edi
	mov	ecx,[ebp-04]
	xor	ecx,ebp
	call	004112B2
	mov	esp,ebp
	pop	ebp
	ret

l00414770:
	lea	eax,[ebp-00000214]
	mov	dword ptr [ebp-00000214],00000208
	push	eax
	lea	eax,[ebp-0000020C]
	mov	ecx,ebx
	push	eax
	lea	eax,[ebp-0000021C]
	push	eax
	push	00
	push	0041876C
	push	dword ptr [ebp-00000210]
	call	0041130C
	call	ebx
	push	dword ptr [ebp-00000210]
	mov	ebx,[ebp-00000218]
	mov	esi,eax
	mov	ecx,ebx
	call	0041130C
	call	ebx
	push	edi
	call	dword ptr [0041B020]
	test	esi,esi
	jnz	0041475D

l004147C7:
	cmp	dword ptr [ebp-0000021C],01
	jnz	0041475D

l004147D0:
	mov	ecx,[ebp-00000214]
	test	cl,01
	jnz	0041475D

l004147DB:
	shr	ecx,01
	mov	edx,ecx
	cmp	ecx,02
	jc	0041475D

l004147E8:
	dec	ecx
	lea	eax,[ebp-0000020C]
	cmp	[eax+ecx*2],si
	lea	eax,[eax+ecx*2]
	jnz	0041475D

l004147FC:
	cmp	word ptr [eax-02],5C
	jz	0041480D

l00414803:
	mov	ecx,0000005C
	mov	[eax],cx
	mov	ecx,edx

l0041480D:
	mov	eax,ecx
	not	eax
	cmp	eax,12
	jc	0041475D

l0041481A:
	lea	eax,[ecx+11]
	cmp	eax,00000104
	ja	0041475D

l00414828:
	mov	eax,[004185D8]
	mov	[ebp+ecx*2-0000020C],eax
	mov	eax,[004185DC]
	mov	[ebp+ecx*2-00000208],eax
	mov	eax,[004185E0]
	mov	[ebp+ecx*2-00000204],eax
	mov	eax,[004185E4]
	mov	[ebp+ecx*2-00000200],eax
	mov	eax,[004185E8]
	mov	[ebp+ecx*2-000001FC],eax
	mov	eax,[004185EC]
	mov	[ebp+ecx*2-000001F8],eax
	mov	eax,[004185F0]
	mov	[ebp+ecx*2-000001F4],eax
	mov	eax,[004185F4]
	mov	[ebp+ecx*2-000001F0],eax
	mov	ax,[004185F8]
	push	00000900
	mov	[ebp+ecx*2-000001EC],ax
	lea	eax,[ebp-0000020C]
	push	00
	push	eax
	call	004113AC
	mov	esi,eax
	add	esp,0C
	test	esi,esi
	jnz	004148D1

l004148B2:
	call	dword ptr [0041B010]
	cmp	eax,57
	jnz	004148D1

l004148BD:
	push	08
	lea	eax,[ebp-0000020C]
	push	esi
	push	eax
	call	004113AC
	add	esp,0C
	mov	esi,eax

l004148D1:
	mov	ecx,[ebp-04]
	mov	eax,esi
	pop	ebx
	pop	esi
	xor	ecx,ebp
	pop	edi
	call	004112B2
	mov	esp,ebp
	pop	ebp
	ret
004148E4             CC CC CC CC CC CC CC CC CC CC CC CC     ............
004148F0 CC CC CC CC CC CC CC CC CC CC CC CC CC CC CC CC ................
00414900 CC CC CC CC CC CC CC CC CC CC CC CC CC CC CC CC ................
00414910 CC CC CC CC CC CC CC CC CC CC CC CC CC CC CC CC ................
00414920 CC CC CC CC CC CC CC CC CC CC CC CC CC CC CC CC ................
00414930 CC CC CC CC CC CC CC CC CC CC CC CC CC CC CC CC ................
00414940 CC CC CC CC CC CC CC CC CC CC CC CC CC CC CC CC ................
00414950 CC CC CC CC CC CC CC CC CC CC CC CC CC CC CC CC ................
00414960 CC CC CC CC CC CC CC CC CC CC CC CC CC CC CC CC ................
00414970 CC CC CC CC CC CC CC CC CC CC CC CC CC CC CC CC ................
00414980 CC CC CC CC CC CC CC CC CC CC CC CC CC CC CC CC ................

;; fn00414990: 00414990
fn00414990 proc
	push	ebp
	mov	ebp,esp
	sub	esp,0000060C
	mov	eax,[0041A000]
	xor	eax,ebp
	mov	[ebp-04],eax
	mov	eax,[ebp+08]
	lea	ecx,[ebp-0000020C]
	push	esi
	mov	esi,[ebp+0C]
	push	00000100
	push	ecx
	push	00000100
	lea	ecx,[ebp-0000040C]
	push	ecx
	push	00000100
	lea	ecx,[ebp-0000060C]
	push	ecx
	push	03
	lea	ecx,[ebp-0C]
	push	ecx
	push	eax
	call	004112DF
	add	esp,24
	test	eax,eax
	jz	004149F2

l004149E1:
	xor	eax,eax
	pop	esi
	mov	ecx,[ebp-04]
	xor	ecx,ebp
	call	004112B2
	mov	esp,ebp
	pop	ebp
	ret

l004149F2:
	push	00418794
	lea	eax,[ebp-0000040C]
	push	09
	push	eax
	call	00411055
	add	esp,0C
	test	eax,eax
	jnz	004149E1

l00414A0C:
	push	00418788
	lea	eax,[ebp-0000020C]
	push	04
	push	eax
	call	00411055
	add	esp,0C
	test	eax,eax
	jnz	004149E1

l00414A26:
	lea	eax,[ebp-0000020C]
	push	eax
	lea	eax,[ebp-0000040C]
	push	eax
	lea	eax,[ebp-0000060C]
	push	eax
	lea	eax,[ebp-0C]
	push	eax
	push	dword ptr [ebp+10]
	push	esi
	call	0041100A
	mov	ecx,[ebp-04]
	add	esp,18
	neg	eax
	sbb	eax,eax
	xor	ecx,ebp
	inc	eax
	pop	esi
	call	004112B2
	mov	esp,ebp
	pop	ebp
	ret
00414A5F                                              CC                .
00414A60 CC CC CC CC CC CC CC CC CC CC CC CC CC CC CC CC ................
00414A70 CC CC CC CC CC CC CC CC CC CC CC CC CC CC CC CC ................
00414A80 CC CC CC CC CC CC CC CC CC CC CC CC CC CC CC CC ................
00414A90 CC CC CC CC CC CC CC CC CC CC CC CC CC CC CC CC ................

l00414AA0:
	push	ebp
	mov	ebp,esp
	mov	eax,[ebp+14]
	sub	esp,4C
	xor	ecx,ecx
	mov	dword ptr [eax],00000000
	mov	eax,[ebp+0C]
	push	esi
	mov	esi,[ebp+08]
	push	1C
	mov	[eax],cx
	dec	esi
	lea	eax,[ebp-4C]
	push	eax
	push	esi
	call	dword ptr [0041B024]
	test	eax,eax
	jnz	00414AD4

l00414ACD:
	xor	eax,eax
	pop	esi
	mov	esp,ebp
	pop	ebp
	ret

l00414AD4:
	push	dword ptr [ebp+1C]
	push	dword ptr [ebp+18]
	push	dword ptr [ebp-48]
	call	00411339
	add	esp,0C
	test	eax,eax
	jz	00414ACD

l00414AE9:
	mov	eax,[ebp-48]
	mov	ecx,00005A4D
	cmp	[eax],cx
	jnz	00414ACD

l00414AF6:
	mov	ecx,[eax+3C]
	test	ecx,ecx
	jle	00414ACD

l00414AFD:
	add	ecx,eax
	cmp	dword ptr [ecx],00004550
	jnz	00414ACD

l00414B07:
	movzx	edx,word ptr [ecx+14]
	sub	esi,eax
	push	ebx
	push	edi
	movzx	edi,word ptr [ecx+06]
	add	edx,20
	xor	ebx,ebx
	xor	eax,eax
	test	edi,edi
	jz	00414B37

l00414B1E:
	add	ecx,edx

l00414B20:
	mov	edx,[ecx+04]
	cmp	esi,edx
	jc	00414B2F

l00414B27:
	mov	ebx,esi
	sub	ebx,edx
	cmp	esi,[ecx]
	jc	00414B37

l00414B2F:
	inc	eax
	add	ecx,28
	cmp	eax,edi
	jc	00414B20

l00414B37:
	cmp	eax,edi
	jz	00414BA4

l00414B3B:
	inc	eax
	cmp	byte ptr [0041A56D],00
	mov	[ebp-0C],eax
	jnz	00414B68

l00414B48:
	cmp	dword ptr [0041A568],00
	jnz	00414BA4

l00414B51:
	call	004144E0
	mov	[0041A568],eax
	test	eax,eax
	jz	00414BA4

l00414B5F:
	mov	byte ptr [0041A56D],01
	jmp	00414B6D

l00414B68:
	mov	eax,[0041A568]

l00414B6D:
	push	004187C4
	push	eax
	call	dword ptr [0041B074]
	mov	esi,eax
	test	esi,esi
	jz	00414BA4

l00414B7F:
	lea	eax,[ebp-18]
	mov	ecx,esi
	push	eax
	push	00
	push	00
	lea	eax,[ebp-30]
	push	eax
	push	00
	push	00
	push	00
	push	dword ptr [ebp+18]
	call	0041130C
	call	esi
	add	esp,20
	test	eax,eax
	jnz	00414BAD

l00414BA4:
	pop	edi
	pop	ebx
	xor	eax,eax
	pop	esi
	mov	esp,ebp
	pop	ebp
	ret

l00414BAD:
	mov	edi,[ebp-18]
	mov	dword ptr [ebp-24],00000000
	mov	eax,[edi]
	mov	esi,[eax]
	mov	ecx,esi
	call	0041130C
	mov	ecx,edi
	call	esi
	cmp	eax,01329141
	jnz	00414D0D

l00414BD1:
	mov	edi,[ebp-18]
	lea	ecx,[ebp-20]
	push	ecx
	push	004187D8
	push	00
	mov	eax,[edi]
	mov	esi,[eax+1C]
	mov	ecx,esi
	call	0041130C
	mov	ecx,edi
	call	esi
	test	eax,eax
	jz	00414D0D

l00414BF7:
	mov	edi,[ebp-20]
	lea	eax,[ebp-14]
	push	00
	push	00
	push	00
	mov	esi,[edi]
	push	eax
	push	ebx
	push	dword ptr [ebp-0C]
	mov	esi,[esi+20]
	mov	ecx,esi
	call	0041130C
	mov	ecx,edi
	call	esi
	test	eax,eax
	jz	00414CFA

l00414C20:
	mov	edi,[ebp-14]
	lea	ecx,[ebp-08]
	mov	dword ptr [ebp-08],00000000
	push	ecx
	mov	eax,[edi]
	mov	esi,[eax+68]
	mov	ecx,esi
	call	0041130C
	mov	ecx,edi
	call	esi
	test	al,al
	jz	00414CE7

l00414C46:
	mov	eax,[ebp-08]
	test	eax,eax
	jz	00414CE7

l00414C51:
	mov	eax,[eax]
	xor	edi,edi
	mov	esi,[eax+08]
	mov	ecx,esi
	call	0041130C
	mov	ecx,[ebp-08]
	call	esi
	test	eax,eax
	jz	00414CC5

l00414C68:
	mov	edi,[ebp-08]
	lea	eax,[ebp-10]
	push	00
	push	eax
	lea	eax,[ebp-28]
	mov	esi,[edi]
	push	eax
	lea	eax,[ebp-04]
	push	eax
	mov	esi,[esi+0C]
	lea	eax,[ebp-1C]
	push	eax
	push	00
	mov	ecx,esi
	call	0041130C
	mov	ecx,edi
	call	esi
	test	al,al
	jz	00414CD5

l00414C93:
	movzx	eax,word ptr [ebp-04]
	cmp	eax,[ebp-0C]
	jnz	00414CAC

l00414C9C:
	mov	ecx,[ebp-1C]
	cmp	ecx,ebx
	ja	00414CAC

l00414CA3:
	mov	eax,[ebp-28]
	add	eax,ecx
	cmp	ebx,eax
	jc	00414D2A

l00414CAC:
	mov	edi,[ebp-08]
	mov	eax,[edi]
	mov	esi,[eax+08]
	mov	ecx,esi
	call	0041130C
	mov	ecx,edi
	call	esi
	test	eax,eax
	jnz	00414C68

l00414CC3:
	xor	edi,edi

l00414CC5:
	push	edi
	push	00
	call	dword ptr [0041B028]
	push	eax
	call	dword ptr [0041B02C]

l00414CD5:
	mov	edi,[ebp-08]
	mov	eax,[edi]
	mov	esi,[eax]
	mov	ecx,esi
	call	0041130C
	mov	ecx,edi
	call	esi

l00414CE7:
	mov	edi,[ebp-14]
	mov	eax,[edi]
	mov	esi,[eax+40]
	mov	ecx,esi
	call	0041130C
	mov	ecx,edi
	call	esi

l00414CFA:
	mov	edi,[ebp-20]
	mov	eax,[edi]
	mov	esi,[eax+38]
	mov	ecx,esi
	call	0041130C
	mov	ecx,edi
	call	esi

l00414D0D:
	mov	edi,[ebp-18]
	mov	edx,[edi]
	mov	esi,[edx+2C]
	mov	ecx,esi
	call	0041130C
	mov	ecx,edi
	call	esi
	mov	eax,[ebp-24]
	pop	edi
	pop	ebx
	pop	esi
	mov	esp,ebp
	pop	ebp
	ret

l00414D2A:
	mov	eax,[ebp-10]
	test	eax,eax
	jz	00414CD5

l00414D31:
	cmp	eax,1FFFFFFF
	jnc	00414CD5

l00414D38:
	shl	eax,03
	push	eax
	push	00
	call	dword ptr [0041B028]
	push	eax
	call	dword ptr [0041B030]
	mov	[ebp-0C],eax
	test	eax,eax
	jz	00414CD5

l00414D52:
	mov	edi,[ebp-08]
	push	eax
	lea	eax,[ebp-10]
	push	eax
	mov	esi,[edi]
	lea	eax,[ebp-2C]
	push	00
	push	00
	push	00
	mov	esi,[esi+0C]
	mov	ecx,esi
	push	eax
	call	0041130C
	mov	ecx,edi
	call	esi
	mov	edi,[ebp-0C]
	test	al,al
	jz	00414CC5

l00414D7F:
	sub	ebx,[ebp-1C]
	cmp	ebx,[edi]
	jc	00414CC5

l00414D8A:
	mov	ecx,[ebp-10]
	mov	eax,00000001
	cmp	ecx,eax
	jbe	00414DA0

l00414D96:
	cmp	ebx,[edi+eax*8]
	jc	00414DA0

l00414D9B:
	inc	eax
	cmp	eax,ecx
	jc	00414D96

l00414DA0:
	mov	eax,[edi+eax*8-04]
	mov	ecx,[ebp+14]
	and	eax,00FFFFFF
	mov	edi,[ebp-14]
	push	00
	push	00
	mov	[ecx],eax
	lea	eax,[ebp+10]
	mov	esi,[edi]
	push	00
	push	eax
	push	dword ptr [ebp+0C]
	mov	esi,[esi+70]
	mov	ecx,esi
	push	dword ptr [ebp-2C]
	call	0041130C
	mov	ecx,edi
	call	esi
	mov	edi,[ebp-0C]
	test	al,al
	jz	00414CC5

l00414DDC:
	mov	dword ptr [ebp-24],00000001
	jmp	00414CC5
00414DE8                         CC CC CC CC CC CC CC CC         ........
00414DF0 CC CC CC CC CC CC CC CC CC CC CC CC CC CC CC CC ................
00414E00 CC CC CC CC CC CC CC CC CC CC CC CC CC CC CC CC ................
00414E10 CC CC CC CC CC CC CC CC CC CC CC CC CC CC CC CC ................
00414E20 CC CC CC CC CC CC CC CC CC CC CC CC CC CC CC CC ................
00414E30 CC CC CC CC CC CC CC CC CC CC CC CC CC CC CC CC ................
00414E40 CC CC CC CC CC CC CC CC CC CC CC CC CC CC CC CC ................
00414E50 CC CC CC CC CC CC CC CC CC CC CC CC CC CC CC CC ................
00414E60 CC CC CC CC CC CC CC CC CC CC CC CC CC CC CC CC ................
00414E70 CC CC CC CC CC CC CC CC CC CC CC CC CC CC CC CC ................
00414E80 CC CC CC CC CC CC CC CC CC CC CC CC CC CC CC CC ................
00414E90 CC CC CC CC CC CC CC CC CC CC CC CC CC CC CC CC ................
00414EA0 CC CC CC CC CC CC CC CC CC CC CC CC CC CC CC CC ................
00414EB0 CC CC CC CC CC CC CC CC CC CC CC CC CC CC CC CC ................

l00414EC0:
	push	ebp
	mov	ebp,esp
	sub	esp,40
	mov	eax,[0041A000]
	xor	eax,ebp
	mov	[ebp-04],eax
	push	ebx
	push	esi
	mov	dword ptr [0041A570],00000000
	mov	eax,[0041A02C]
	or	eax,01
	mov	[0041A02C],eax
	push	0A
	call	00411348
	test	eax,eax
	jnz	00414EFB

l00414EF4:
	xor	eax,eax
	jmp	00415183

l00414EFB:
	mov	dword ptr [ebp-10],00000000
	mov	dword ptr [ebp-0C],00000000
	mov	dword ptr [ebp-08],00000000
	mov	dword ptr [0041A570],00000001
	mov	ecx,[0041A02C]
	or	ecx,02
	mov	[0041A02C],ecx
	lea	esi,[ebp-20]
	xor	eax,eax
	xor	ecx,ecx
	cpuid
	mov	[esi],eax
	mov	[esi+04],ebx
	mov	[esi+08],ecx
	mov	[esi+0C],edx
	mov	edx,00000004
	imul	eax,edx,00
	mov	ecx,[ebp+eax-20]
	mov	[ebp-30],ecx
	mov	edx,00000004
	shl	edx,00
	mov	eax,[ebp+edx-20]
	xor	eax,756E6547
	mov	ecx,00000004
	imul	edx,ecx,03
	mov	ecx,[ebp+edx-20]
	xor	ecx,49656E69
	or	eax,ecx
	mov	edx,00000004
	shl	edx,01
	mov	ecx,[ebp+edx-20]
	xor	ecx,6C65746E
	or	eax,ecx
	jnz	00414F8F

l00414F86:
	mov	dword ptr [ebp-2C],00000001
	jmp	00414F96

l00414F8F:
	mov	dword ptr [ebp-2C],00000000

l00414F96:
	mov	dl,[ebp-2C]
	mov	[ebp-21],dl
	lea	esi,[ebp-20]
	mov	eax,00000001
	xor	ecx,ecx
	cpuid
	mov	[esi],eax
	mov	[esi+04],ebx
	mov	[esi+08],ecx
	mov	[esi+0C],edx
	mov	eax,00000004
	imul	ecx,eax,00
	mov	edx,[ebp+ecx-20]
	mov	[ebp-28],edx
	movzx	eax,byte ptr [ebp-21]
	test	eax,eax
	jz	0041503B

l00414FCA:
	mov	ecx,[ebp-28]
	and	ecx,0FFF3FF0
	cmp	ecx,000106C0
	jz	0041502C

l00414FDB:
	mov	edx,[ebp-28]
	and	edx,0FFF3FF0
	cmp	edx,00020660
	jz	0041502C

l00414FEC:
	mov	eax,[ebp-28]
	and	eax,0FFF3FF0
	cmp	eax,00020670
	jz	0041502C

l00414FFB:
	mov	ecx,[ebp-28]
	and	ecx,0FFF3FF0
	cmp	ecx,00030650
	jz	0041502C

l0041500C:
	mov	edx,[ebp-28]
	and	edx,0FFF3FF0
	cmp	edx,00030660
	jz	0041502C

l0041501D:
	mov	eax,[ebp-28]
	and	eax,0FFF3FF0
	cmp	eax,00030670
	jnz	0041503B

l0041502C:
	mov	ecx,[0041A574]
	or	ecx,01
	mov	[0041A574],ecx

l0041503B:
	mov	edx,00000004
	imul	eax,edx,03
	mov	ecx,00000004
	imul	edx,ecx,00
	mov	eax,[ebp+eax-20]
	mov	[ebp+edx-10],eax
	mov	ecx,00000004
	shl	ecx,01
	mov	edx,00000004
	shl	edx,00
	mov	eax,[ebp+ecx-20]
	mov	[ebp+edx-10],eax
	cmp	dword ptr [ebp-30],07
	jl	004150BF

l00415070:
	lea	esi,[ebp-20]
	mov	eax,00000007
	xor	ecx,ecx
	cpuid
	mov	[esi],eax
	mov	[esi+04],ebx
	mov	[esi+08],ecx
	mov	[esi+0C],edx
	mov	ecx,00000004
	shl	ecx,00
	mov	edx,00000004
	shl	edx,01
	mov	eax,[ebp+ecx-20]
	mov	[ebp+edx-10],eax
	mov	ecx,00000004
	shl	ecx,00
	mov	edx,[ebp+ecx-20]
	and	edx,00000200
	jz	004150BF

l004150B2:
	mov	eax,[0041A574]
	or	eax,02
	mov	[0041A574],eax

l004150BF:
	mov	ecx,00000004
	shl	ecx,00
	mov	edx,[ebp+ecx-10]
	and	edx,00100000
	jz	00415181

l004150D7:
	mov	dword ptr [0041A570],00000002
	mov	eax,[0041A02C]
	or	eax,04
	mov	[0041A02C],eax
	mov	ecx,00000004
	shl	ecx,00
	mov	edx,[ebp+ecx-10]
	and	edx,08000000
	jz	00415181

l00415102:
	mov	eax,00000004
	shl	eax,00
	mov	ecx,[ebp+eax-10]
	and	ecx,10000000
	jz	00415181

l00415116:
	xor	ecx,ecx
	xgetbv
	mov	[ebp-38],eax
	mov	[ebp-34],edx
	mov	edx,[ebp-38]
	mov	eax,[ebp-34]
	and	edx,06
	and	eax,00
	mov	[ebp-40],edx
	mov	[ebp-3C],eax
	cmp	dword ptr [ebp-40],06
	jnz	00415181

l00415139:
	cmp	dword ptr [ebp-3C],00
	jnz	00415181

l0041513F:
	mov	dword ptr [0041A570],00000003
	mov	ecx,[0041A02C]
	or	ecx,08
	mov	[0041A02C],ecx
	mov	edx,00000004
	shl	edx,01
	mov	eax,[ebp+edx-10]
	and	eax,20
	jz	00415181

l00415168:
	mov	dword ptr [0041A570],00000005
	mov	ecx,[0041A02C]
	or	ecx,20
	mov	[0041A02C],ecx

l00415181:
	xor	eax,eax

l00415183:
	pop	esi
	pop	ebx
	mov	ecx,[ebp-04]
	xor	ecx,ebp
	call	004112B2
	mov	esp,ebp
	pop	ebp
	ret
00415193          CC CC CC CC CC CC CC CC CC CC CC CC CC    .............
004151A0 CC CC CC CC CC CC CC CC CC CC CC CC CC CC CC CC ................
004151B0 CC CC CC CC CC CC CC CC CC CC CC CC CC CC CC CC ................
004151C0 CC CC CC CC CC CC CC CC CC CC CC CC CC CC CC CC ................
004151D0 CC CC CC CC CC CC CC CC CC CC CC CC CC CC CC CC ................
004151E0 CC CC CC CC CC CC CC CC CC CC CC CC CC CC CC CC ................
004151F0 CC CC CC CC CC CC CC CC CC CC CC CC CC CC CC CC ................
00415200 CC CC CC CC CC CC CC CC CC CC CC CC CC CC CC CC ................
00415210 CC CC CC CC CC CC CC CC CC CC CC CC CC CC CC CC ................
00415220 CC CC CC CC CC CC CC CC CC CC CC CC CC CC CC CC ................
00415230 CC CC CC CC CC CC CC CC CC CC CC CC CC CC CC CC ................
00415240 CC CC CC CC CC CC CC CC CC CC CC CC CC CC CC CC ................

l00415250:
	push	ebp
	mov	ebp,esp
	push	ecx
	cmp	dword ptr [0041A030],00
	jz	00415266

l0041525D:
	mov	dword ptr [ebp-04],00000001
	jmp	0041526D

l00415266:
	mov	dword ptr [ebp-04],00000000

l0041526D:
	mov	eax,[ebp-04]
	mov	esp,ebp
	pop	ebp
	ret
00415274             CC CC CC CC CC CC CC CC CC CC CC CC     ............
00415280 55 8B EC 51 89 4D FC 8B E5 5D C3 CC CC CC CC CC U..Q.M...]......
00415290 55 8B EC 51 8B 45 08 8B 08 89 4D FC 8B 45 FC 8B U..Q.E....M..E..
004152A0 E5 5D C3 CC CC CC CC CC CC CC CC CC CC CC CC CC .]..............
004152B0 55 8B EC 8B 45 08 50 E8 73 C0 FF FF 83 C4 04 5D U...E.P.s......]
004152C0 C3 CC CC CC CC CC CC CC CC CC CC CC CC CC CC CC ................
004152D0 55 8B EC 51 68 00 C0 41 00 E8 6D BD FF FF 83 C4 U..Qh..A..m.....
004152E0 04 3D CB 12 41 00 74 09 C7 45 FC 01 00 00 00 EB .=..A.t..E......
004152F0 07 C7 45 FC 00 00 00 00 8B 45 FC 8B E5 5D C3 CC ..E......E...]..
00415300 CC CC CC CC CC CC CC CC CC CC FF 25 CC B0 41 00 ...........%..A.

l00415310:
	jmp	dword ptr [0041B0D0]
00415316                   FF 25 C8 B0 41 00                   .%..A.   

l0041531C:
	jmp	dword ptr [0041B0BC]

l00415322:
	jmp	dword ptr [0041B0C0]

l00415328:
	jmp	dword ptr [0041B0C4]
0041532E                                           FF 25               .%
00415330 88 B1 41 00 FF 25 84 B1 41 00 FF 25 80 B1 41 00 ..A..%..A..%..A.
00415340 FF 25 7C B1 41 00 FF 25 78 B1 41 00 FF 25 74 B1 .%|.A..%x.A..%t.
00415350 41 00 FF 25 70 B1 41 00 FF 25 6C B1 41 00 FF 25 A..%p.A..%l.A..%
00415360 68 B1 41 00 FF 25 64 B1 41 00 FF 25 60 B1 41 00 h.A..%d.A..%`.A.
00415370 FF 25 5C B1 41 00                               .%\.A.         

l00415376:
	jmp	dword ptr [0041B158]

l0041537C:
	jmp	dword ptr [0041B10C]

l00415382:
	jmp	dword ptr [0041B1A4]

l00415388:
	jmp	dword ptr [0041B19C]
0041538E                                           FF 25               .%
00415390 98 B1 41 00 FF 25 94 B1 41 00                   ..A..%..A.     

l0041539A:
	jmp	dword ptr [0041B190]

l004153A0:
	jmp	dword ptr [0041B154]

l004153A6:
	jmp	dword ptr [0041B144]
004153AC                                     FF 25 8C B1             .%..
004153B0 41 00                                           A.             

l004153B2:
	jmp	dword ptr [0041B104]
004153B8                         FF 25 08 B1 41 00 FF 25         .%..A..%
004153C0 A8 B1 41 00 FF 25 10 B1 41 00                   ..A..%..A.     

l004153CA:
	jmp	dword ptr [0041B114]

l004153D0:
	jmp	dword ptr [0041B118]
004153D6                   FF 25 1C B1 41 00 FF 25 20 B1       .%..A..% .
004153E0 41 00 FF 25 24 B1 41 00 FF 25 28 B1 41 00 FF 25 A..%$.A..%(.A..%
004153F0 2C B1 41 00 FF 25 30 B1 41 00 FF 25 34 B1 41 00 ,.A..%0.A..%4.A.
00415400 FF 25 38 B1 41 00 FF 25 3C B1 41 00 FF 25 40 B1 .%8.A..%<.A..%@.
00415410 41 00 FF 25 A0 B1 41 00                         A..%..A.       

l00415418:
	jmp	dword ptr [0041B148]

l0041541E:
	jmp	dword ptr [0041B14C]

l00415424:
	jmp	dword ptr [0041B150]
0041542A                               FF 25 70 B0 41 00           .%p.A.
00415430 FF 25 6C B0 41 00 FF 25 68 B0 41 00 FF 25 64 B0 .%l.A..%h.A..%d.
00415440 41 00 FF 25 60 B0 41 00 FF 25 5C B0 41 00 FF 25 A..%`.A..%\.A..%
00415450 58 B0 41 00 FF 25 54 B0 41 00                   X.A..%T.A.     

l0041545A:
	jmp	dword ptr [0041B050]
	jmp	dword ptr [0041B04C]
	jmp	dword ptr [0041B048]
	jmp	dword ptr [0041B044]
	jmp	dword ptr [0041B040]
	jmp	dword ptr [0041B03C]
	jmp	dword ptr [0041B038]
	jmp	dword ptr [0041B034]
	jmp	dword ptr [0041B030]
	jmp	dword ptr [0041B02C]
	jmp	dword ptr [0041B028]
	jmp	dword ptr [0041B024]
	jmp	dword ptr [0041B020]
	jmp	dword ptr [0041B074]
	int	03
	int	03

l004154B0:
	push	ebp
	mov	ebp,esp
	mov	al,01
	pop	ebp
	ret
004154B7                      CC CC CC CC CC CC CC CC CC        .........
004154C0 55 8B EC B0 01 5D C3 CC CC CC CC CC CC CC CC CC U....]..........
004154D0 55 8B EC B0 01 5D C3 CC CC CC CC CC CC CC CC CC U....]..........

l004154E0:
	push	ebp
	mov	ebp,esp
	mov	al,01
	pop	ebp
	ret
004154E7                      CC CC CC CC CC CC CC CC CC        .........
004154F0 55 8B EC B0 01 5D C3 CC CC CC CC CC CC CC CC CC U....]..........
00415500 55 8B EC 33 C0 5D C3 CC CC CC CC CC CC CC CC CC U..3.]..........
00415510 CC CC CC CC CC CC CC CC CC CC CC CC CC CC CC CC ................
00415520 CC CC CC CC CC CC CC CC CC CC CC CC CC CC CC CC ................
00415530 CC CC CC CC CC CC CC CC CC CC CC CC CC CC CC CC ................
00415540 CC CC CC CC CC CC CC CC CC CC CC CC CC CC CC CC ................
00415550 CC CC CC CC CC CC CC CC CC CC CC CC CC CC CC CC ................
00415560 CC CC CC CC CC CC CC CC CC CC CC CC CC CC CC CC ................
00415570 CC CC CC CC CC CC CC CC CC CC CC CC CC CC CC CC ................
00415580 CC CC CC CC CC CC CC CC CC CC CC CC CC CC CC CC ................
00415590 CC CC CC CC CC CC CC CC CC CC CC CC CC CC CC CC ................
004155A0 CC CC CC CC CC CC CC CC CC CC CC CC CC CC CC CC ................
004155B0 CC CC CC CC CC CC CC CC CC CC CC CC CC CC CC CC ................
004155C0 CC CC CC CC CC CC CC CC CC CC CC CC CC CC CC CC ................
004155D0 CC CC CC CC CC CC CC CC CC CC CC CC CC CC CC CC ................
004155E0 CC CC CC CC CC CC CC CC CC CC CC CC CC CC CC CC ................
004155F0 CC CC CC CC CC CC CC CC CC CC CC CC CC CC CC CC ................
00415600 CC CC CC CC CC CC CC CC CC CC CC CC CC CC CC CC ................
00415610 CC CC CC CC CC CC CC CC CC CC CC CC CC CC CC CC ................
00415620 CC CC CC CC CC CC CC CC CC CC CC CC CC CC CC CC ................
00415630 CC CC CC CC CC CC CC CC CC CC CC CC CC CC CC CC ................
00415640 CC CC CC CC CC CC CC CC CC CC CC CC CC CC CC CC ................
00415650 CC CC CC CC CC CC CC CC CC CC CC CC CC CC CC CC ................
00415660 CC CC CC CC CC CC CC CC CC CC CC CC CC CC CC CC ................
00415670 CC CC CC CC CC CC CC CC CC CC CC CC CC CC CC CC ................
00415680 CC CC CC CC CC CC CC CC CC CC CC CC CC CC CC CC ................
00415690 CC CC CC CC CC CC CC CC CC CC CC CC CC CC CC CC ................
004156A0 CC CC CC CC CC CC CC CC CC CC CC CC CC CC CC CC ................
004156B0 CC CC CC CC CC CC CC CC CC CC CC CC CC CC CC CC ................
004156C0 CC CC CC CC CC CC CC CC CC CC CC CC CC CC CC CC ................
004156D0 CC CC CC CC CC CC CC CC CC CC CC CC CC CC CC CC ................
004156E0 CC CC CC CC CC CC CC CC CC CC CC CC CC CC CC CC ................
004156F0 CC CC CC CC CC CC CC CC CC CC CC CC CC CC CC CC ................
00415700 CC CC CC CC CC CC CC CC CC CC CC CC CC CC CC CC ................
00415710 CC CC CC CC CC CC CC CC CC CC CC CC CC CC CC CC ................
00415720 CC CC CC CC CC CC CC CC CC CC CC CC CC CC CC CC ................
00415730 CC CC CC CC CC CC CC CC CC CC CC CC CC CC CC CC ................
00415740 CC CC CC CC CC CC CC CC CC CC CC CC CC CC CC CC ................
00415750 CC CC CC CC CC CC CC CC CC CC CC CC CC CC CC CC ................
00415760 CC CC CC CC CC CC CC CC CC CC CC CC CC CC CC CC ................
00415770 CC CC CC CC CC CC CC CC CC CC CC CC CC CC CC CC ................
00415780 CC CC CC CC CC CC CC CC CC CC CC CC CC CC CC CC ................
00415790 CC CC CC CC CC CC CC CC CC CC CC CC CC CC CC CC ................
004157A0 CC CC CC CC CC CC CC CC CC CC CC CC CC CC CC CC ................
004157B0 CC CC CC CC CC CC CC CC CC CC CC CC CC CC CC CC ................
004157C0 CC CC CC CC CC CC CC CC CC CC CC CC CC CC CC CC ................
004157D0 CC CC CC CC CC CC CC CC CC CC CC CC CC CC CC CC ................
004157E0 CC CC CC CC CC CC CC CC CC CC CC CC CC CC CC CC ................
004157F0 CC CC CC CC CC CC CC CC CC CC CC CC CC CC CC CC ................
00415800 CC CC CC CC CC CC CC CC CC CC CC CC CC CC CC CC ................
00415810 CC CC CC CC CC CC CC CC CC CC CC CC CC CC CC CC ................
00415820 CC CC CC CC CC CC CC CC CC CC CC CC CC CC CC CC ................
00415830 CC CC CC CC CC CC CC CC CC CC CC CC CC CC CC CC ................
00415840 CC CC CC CC CC CC CC CC CC CC CC CC CC CC CC CC ................
00415850 CC CC CC CC CC CC CC CC CC CC CC CC CC CC CC CC ................
00415860 CC CC CC CC CC CC CC CC CC CC CC CC CC CC CC CC ................
00415870 CC CC CC CC CC CC CC CC CC CC CC CC CC CC CC CC ................
00415880 CC CC CC CC CC CC CC CC CC CC CC CC CC CC CC CC ................
00415890 CC CC CC CC CC CC CC CC CC CC CC CC CC CC CC CC ................
004158A0 CC CC CC CC CC CC CC CC CC CC CC CC CC CC CC CC ................
004158B0 CC CC CC CC CC CC CC CC CC CC CC CC CC CC CC CC ................
004158C0 CC CC CC CC CC CC CC CC CC CC CC CC CC CC CC CC ................
004158D0 CC CC CC CC CC CC CC CC CC CC CC CC CC CC CC CC ................
004158E0 CC CC CC CC CC CC CC CC CC CC CC CC CC CC CC CC ................
004158F0 CC CC CC CC CC CC CC CC CC CC CC CC CC CC CC CC ................
00415900 CC CC CC CC CC CC CC CC CC CC CC CC CC CC CC CC ................
00415910 CC CC CC CC CC CC CC CC CC CC CC CC CC CC CC CC ................
00415920 CC CC CC CC CC CC CC CC CC CC CC CC CC CC CC CC ................
00415930 CC CC CC CC CC CC CC CC CC CC CC CC CC CC CC CC ................
00415940 CC CC CC CC CC CC CC CC CC CC CC CC CC CC CC CC ................
00415950 CC CC CC CC CC CC CC CC CC CC CC CC CC CC CC CC ................
00415960 CC CC CC CC CC CC CC CC CC CC CC CC CC CC CC CC ................
00415970 CC CC CC CC CC CC CC CC CC CC CC CC CC CC CC CC ................
00415980 CC CC CC CC CC CC CC CC CC CC CC CC CC CC CC CC ................
00415990 CC CC CC CC CC CC CC CC CC CC CC CC CC CC CC CC ................
004159A0 CC CC CC CC CC CC CC CC CC CC CC CC CC CC CC CC ................
004159B0 CC CC CC CC CC CC CC CC CC CC CC CC CC CC CC CC ................
004159C0 CC CC CC CC CC CC CC CC CC CC CC CC CC CC CC CC ................
004159D0 CC CC CC CC CC CC CC CC CC CC CC CC CC CC CC CC ................
004159E0 CC CC CC CC CC CC CC CC CC CC CC CC CC CC CC CC ................
004159F0 CC CC CC CC CC CC CC CC CC CC CC CC CC CC CC CC ................
00415A00 CC CC CC CC CC CC CC CC CC CC CC CC CC CC CC CC ................
00415A10 CC CC CC CC CC CC CC CC CC CC CC CC CC CC CC CC ................
00415A20 CC CC CC CC CC CC CC CC CC CC CC CC CC CC CC CC ................
00415A30 CC CC CC CC CC CC CC CC CC CC CC CC CC CC CC CC ................
00415A40 CC CC CC CC CC CC CC CC CC CC CC CC CC CC CC CC ................
00415A50 CC CC CC CC CC CC CC CC CC CC CC CC CC CC CC CC ................
00415A60 CC CC CC CC CC CC CC CC CC CC CC CC CC CC CC CC ................
00415A70 CC CC CC CC CC CC CC CC CC CC CC CC CC CC CC CC ................
00415A80 CC CC CC CC CC CC CC CC CC CC CC CC CC CC CC CC ................
00415A90 CC CC CC CC CC CC CC CC CC CC CC CC CC CC CC CC ................
00415AA0 CC CC CC CC CC CC CC CC CC CC CC CC CC CC CC CC ................
00415AB0 CC CC CC CC CC CC CC CC CC CC CC CC CC CC CC CC ................
00415AC0 CC CC CC CC CC CC CC CC CC CC CC CC CC CC CC CC ................
00415AD0 CC CC CC CC CC CC CC CC CC CC CC CC CC CC CC CC ................
00415AE0 CC CC CC CC CC CC CC CC CC CC CC CC CC CC CC CC ................
00415AF0 CC CC CC CC CC CC CC CC CC CC CC CC CC CC CC CC ................
00415B00 CC CC CC CC CC CC CC CC CC CC CC CC CC CC CC CC ................
00415B10 CC CC CC CC CC CC CC CC CC CC CC CC CC CC CC CC ................
00415B20 CC CC CC CC CC CC CC CC CC CC CC CC CC CC CC CC ................
00415B30 CC CC CC CC CC CC CC CC CC CC CC CC CC CC CC CC ................
00415B40 CC CC CC CC CC CC CC CC CC CC CC CC CC CC CC CC ................
00415B50 CC CC CC CC CC CC CC CC CC CC CC CC CC CC CC CC ................
00415B60 CC CC CC CC CC CC CC CC CC CC CC CC CC CC CC CC ................
00415B70 CC CC CC CC CC CC CC CC CC CC CC CC CC CC CC CC ................
00415B80 CC CC CC CC CC CC CC CC CC CC CC CC CC CC CC CC ................
00415B90 CC CC CC CC CC CC CC CC CC CC CC CC CC CC CC CC ................
00415BA0 CC CC CC CC CC CC CC CC CC CC CC CC CC CC CC CC ................
00415BB0 CC CC CC CC CC CC CC CC CC CC CC CC CC CC CC CC ................
00415BC0 CC CC CC CC CC CC CC CC CC CC CC CC CC CC CC CC ................
00415BD0 CC CC CC CC CC CC CC CC CC CC CC CC CC CC CC CC ................
00415BE0 CC CC CC CC CC CC CC CC CC CC CC CC CC CC CC CC ................
00415BF0 CC CC CC CC CC CC CC CC CC CC CC CC CC CC CC CC ................
00415C00 CC CC CC CC CC CC CC CC CC CC CC CC CC CC CC CC ................
00415C10 CC CC CC CC CC CC CC CC CC CC CC CC CC CC CC CC ................
00415C20 CC CC CC CC CC CC CC CC CC CC CC CC CC CC CC CC ................
00415C30 CC CC CC CC CC CC CC CC CC CC CC CC CC CC CC CC ................
00415C40 CC CC CC CC CC CC CC CC CC CC CC CC CC CC CC CC ................
00415C50 CC CC CC CC CC CC CC CC CC CC CC CC CC CC CC CC ................
00415C60 CC CC CC CC CC CC CC CC CC CC CC CC CC CC CC CC ................
00415C70 CC CC CC CC CC CC CC CC CC CC CC CC CC CC CC CC ................
00415C80 CC CC CC CC CC CC CC CC CC CC CC CC CC CC CC CC ................
00415C90 CC CC CC CC CC CC CC CC CC CC CC CC CC CC CC CC ................
00415CA0 CC CC CC CC CC CC CC CC CC CC CC CC CC CC CC CC ................
00415CB0 CC CC CC CC CC CC CC CC CC CC CC CC CC CC CC CC ................
00415CC0 CC CC CC CC CC CC CC CC CC CC CC CC CC CC CC CC ................
00415CD0 CC CC CC CC CC CC CC CC CC CC CC CC CC CC CC CC ................
00415CE0 CC CC CC CC CC CC CC CC CC CC CC CC CC CC CC CC ................
00415CF0 CC CC CC CC CC CC CC CC CC CC CC CC CC CC CC CC ................
00415D00 CC CC CC CC CC CC CC CC CC CC CC CC CC CC CC CC ................
00415D10 CC CC CC CC CC CC CC CC CC CC CC CC CC CC CC CC ................
00415D20 CC CC CC CC CC CC CC CC CC CC CC CC CC CC CC CC ................
00415D30 CC CC CC CC CC CC CC CC CC CC CC CC CC CC CC CC ................
00415D40 CC CC CC CC CC CC CC CC CC CC CC CC CC CC CC CC ................
00415D50 CC CC CC CC CC CC CC CC CC CC CC CC CC CC CC CC ................
00415D60 CC CC CC CC CC CC CC CC CC CC CC CC CC CC CC CC ................
00415D70 CC CC CC CC CC CC CC CC CC CC CC CC CC CC CC CC ................
00415D80 CC CC CC CC CC CC CC CC CC CC CC CC CC CC CC CC ................
00415D90 CC CC CC CC CC CC CC CC CC CC CC CC CC CC CC CC ................
00415DA0 CC CC CC CC CC CC CC CC CC CC CC CC CC CC CC CC ................
00415DB0 CC CC CC CC CC CC CC CC CC CC CC CC CC CC CC CC ................
00415DC0 CC CC CC CC CC CC CC CC CC CC CC CC CC CC CC CC ................
00415DD0 CC CC CC CC CC CC CC CC CC CC CC CC CC CC CC CC ................
00415DE0 CC CC CC CC CC CC CC CC CC CC CC CC CC CC CC CC ................
00415DF0 CC CC CC CC CC CC CC CC CC CC CC CC CC CC CC CC ................
00415E00 CC CC CC CC CC CC CC CC CC CC CC CC CC CC CC CC ................
00415E10 CC CC CC CC CC CC CC CC CC CC CC CC CC CC CC CC ................
00415E20 CC CC CC CC CC CC CC CC CC CC CC CC CC CC CC CC ................
00415E30 CC CC CC CC CC CC CC CC CC CC CC CC CC CC CC CC ................
00415E40 CC CC CC CC CC CC CC CC CC CC CC CC CC CC CC CC ................
00415E50 CC CC CC CC CC CC CC CC CC CC CC CC CC CC CC CC ................
00415E60 CC CC CC CC CC CC CC CC CC CC CC CC CC CC CC CC ................
00415E70 CC CC CC CC CC CC CC CC CC CC CC CC CC CC CC CC ................
00415E80 CC CC CC CC CC CC CC CC CC CC CC CC CC CC CC CC ................
00415E90 CC CC CC CC CC CC CC CC CC CC CC CC CC CC CC CC ................
00415EA0 CC CC CC CC CC CC CC CC CC CC CC CC CC CC CC CC ................
00415EB0 CC CC CC CC CC CC CC CC CC CC CC CC CC CC CC CC ................
00415EC0 CC CC CC CC CC CC CC CC CC CC CC CC CC CC CC CC ................
00415ED0 CC CC CC CC CC CC CC CC CC CC CC CC CC CC CC CC ................
00415EE0 CC CC CC CC CC CC CC CC CC CC CC CC CC CC CC CC ................
00415EF0 CC CC CC CC CC CC CC CC CC CC CC CC CC CC CC CC ................
00415F00 CC CC CC CC CC CC CC CC CC CC CC CC CC CC CC CC ................
00415F10 CC CC CC CC CC CC CC CC CC CC CC CC CC CC CC CC ................
00415F20 CC CC CC CC CC CC CC CC CC CC CC CC CC CC CC CC ................
00415F30 CC CC CC CC CC CC CC CC CC CC CC CC CC CC CC CC ................
00415F40 CC CC CC CC CC CC CC CC CC CC CC CC CC CC CC CC ................
00415F50 CC CC CC CC CC CC CC CC CC CC CC CC CC CC CC CC ................
00415F60 CC CC CC CC CC CC CC CC CC CC CC CC CC CC CC CC ................
00415F70 CC CC CC CC CC CC CC CC CC CC CC CC CC CC CC CC ................
00415F80 CC CC CC CC CC CC CC CC CC CC CC CC CC CC CC CC ................
00415F90 CC CC CC CC CC CC CC CC CC CC CC CC CC CC CC CC ................
00415FA0 CC CC CC CC CC CC CC CC CC CC CC CC CC CC CC CC ................
00415FB0 CC CC CC CC CC CC CC CC CC CC CC CC CC CC CC CC ................
00415FC0 CC CC CC CC CC CC CC CC CC CC CC CC CC CC CC CC ................
00415FD0 CC CC CC CC CC CC CC CC CC CC CC CC CC CC CC CC ................
00415FE0 CC CC CC CC CC CC CC CC CC CC CC CC CC CC CC CC ................
00415FF0 CC CC CC CC CC CC CC CC CC CC CC CC CC CC CC CC ................
00416000 CC CC CC CC CC CC CC CC CC CC CC CC CC CC CC CC ................
00416010 CC CC CC CC CC CC CC CC CC CC CC CC CC CC CC CC ................
00416020 CC CC CC CC CC CC CC CC CC CC CC CC CC CC CC CC ................
00416030 CC CC CC CC CC CC CC CC CC CC CC CC CC CC CC CC ................
00416040 CC CC CC CC CC CC CC CC CC CC CC CC CC CC CC CC ................
00416050 CC CC CC CC CC CC CC CC CC CC CC CC CC CC CC CC ................
00416060 CC CC CC CC CC CC CC CC CC CC CC CC CC CC CC CC ................
00416070 CC CC CC CC CC CC CC CC CC CC CC CC CC CC CC CC ................
00416080 CC CC CC CC CC CC CC CC CC CC CC CC CC CC CC CC ................
00416090 CC CC CC CC CC CC CC CC CC CC CC CC CC CC CC CC ................
004160A0 CC CC CC CC CC CC CC CC CC CC CC CC CC CC CC CC ................
004160B0 CC CC CC CC CC CC CC CC CC CC CC CC CC CC CC CC ................
004160C0 CC CC CC CC CC CC CC CC CC CC CC CC CC CC CC CC ................
004160D0 CC CC CC CC CC CC CC CC CC CC CC CC CC CC CC CC ................
004160E0 CC CC CC CC CC CC CC CC CC CC CC CC CC CC CC CC ................
004160F0 CC CC CC CC CC CC CC CC CC CC CC CC CC CC CC CC ................
00416100 CC CC CC CC CC CC CC CC CC CC CC CC CC CC CC CC ................
00416110 CC CC CC CC CC CC CC CC CC CC CC CC CC CC CC CC ................
00416120 CC CC CC CC CC CC CC CC CC CC CC CC CC CC CC CC ................
00416130 CC CC CC CC CC CC CC CC CC CC CC CC CC CC CC CC ................
00416140 CC CC CC CC CC CC CC CC CC CC CC CC CC CC CC CC ................
00416150 CC CC CC CC CC CC CC CC CC CC CC CC CC CC CC CC ................
00416160 CC CC CC CC CC CC CC CC CC CC CC CC CC CC CC CC ................
00416170 CC CC CC CC CC CC CC CC CC CC CC CC CC CC CC CC ................
00416180 CC CC CC CC CC CC CC CC CC CC CC CC CC CC CC CC ................
00416190 CC CC CC CC CC CC CC CC CC CC CC CC CC CC CC CC ................
004161A0 CC CC CC CC CC CC CC CC CC CC CC CC CC CC CC CC ................
004161B0 CC CC CC CC CC CC CC CC CC CC CC CC CC CC CC CC ................
004161C0 CC CC CC CC CC CC CC CC CC CC CC CC CC CC CC CC ................
004161D0 CC CC CC CC CC CC CC CC CC CC CC CC CC CC CC CC ................
004161E0 CC CC CC CC CC CC CC CC CC CC CC CC CC CC CC CC ................
004161F0 CC CC CC CC CC CC CC CC CC CC CC CC CC CC CC CC ................
00416200 CC CC CC CC CC CC CC CC CC CC CC CC CC CC CC CC ................
00416210 CC CC CC CC CC CC CC CC CC CC CC CC CC CC CC CC ................
00416220 CC CC CC CC CC CC CC CC CC CC CC CC CC CC CC CC ................
00416230 CC CC CC CC CC CC CC CC CC CC CC CC CC CC CC CC ................
00416240 CC CC CC CC CC CC CC CC CC CC CC CC CC CC CC CC ................
00416250 CC CC CC CC CC CC CC CC CC CC CC CC CC CC CC CC ................
00416260 CC CC CC CC CC CC CC CC CC CC CC CC CC CC CC CC ................
00416270 CC CC CC CC CC CC CC CC CC CC CC CC CC CC CC CC ................
00416280 CC CC CC CC CC CC CC CC CC CC CC CC CC CC CC CC ................
00416290 CC CC CC CC CC CC CC CC CC CC CC CC CC CC CC CC ................
004162A0 CC CC CC CC CC CC CC CC CC CC CC CC CC CC CC CC ................
004162B0 CC CC CC CC CC CC CC CC CC CC CC CC CC CC CC CC ................
004162C0 CC CC CC CC CC CC CC CC CC CC CC CC CC CC CC CC ................
004162D0 CC CC CC CC CC CC CC CC CC CC CC CC CC CC CC CC ................
004162E0 CC CC CC CC CC CC CC CC CC CC CC CC CC CC CC CC ................
004162F0 CC CC CC CC CC CC CC CC CC CC CC CC CC CC CC CC ................
00416300 CC CC CC CC CC CC CC CC CC CC CC CC CC CC CC CC ................
00416310 CC CC CC CC CC CC CC CC CC CC CC CC CC CC CC CC ................
00416320 CC CC CC CC CC CC CC CC CC CC CC CC CC CC CC CC ................
00416330 CC CC CC CC CC CC CC CC CC CC CC CC CC CC CC CC ................
00416340 CC CC CC CC CC CC CC CC CC CC CC CC CC CC CC CC ................
00416350 CC CC CC CC CC CC CC CC CC CC CC CC CC CC CC CC ................
00416360 CC CC CC CC CC CC CC CC CC CC CC CC CC CC CC CC ................
00416370 CC CC CC CC CC CC CC CC CC CC CC CC CC CC CC CC ................
00416380 CC CC CC CC CC CC CC CC CC CC CC CC CC CC CC CC ................
00416390 CC CC CC CC CC CC CC CC CC CC CC CC CC CC CC CC ................
004163A0 CC CC CC CC CC CC CC CC CC CC CC CC CC CC CC CC ................
004163B0 CC CC CC CC CC CC CC CC CC CC CC CC CC CC CC CC ................
004163C0 CC CC CC CC CC CC CC CC CC CC CC CC CC CC CC CC ................
004163D0 CC CC CC CC CC CC CC CC CC CC CC CC CC CC CC CC ................
004163E0 CC CC CC CC CC CC CC CC CC CC CC CC CC CC CC CC ................
004163F0 CC CC CC CC CC CC CC CC CC CC CC CC CC CC CC CC ................
00416400 CC CC CC CC CC CC CC CC CC CC CC CC CC CC CC CC ................
00416410 CC CC CC CC CC CC CC CC CC CC CC CC CC CC CC CC ................
00416420 CC CC CC CC CC CC CC CC CC CC CC CC CC CC CC CC ................
00416430 CC CC CC CC CC CC CC CC CC CC CC CC CC CC CC CC ................
00416440 CC CC CC CC CC CC CC CC CC CC CC CC CC CC CC CC ................
00416450 CC CC CC CC CC CC CC CC CC CC CC CC CC CC CC CC ................
00416460 CC CC CC CC CC CC CC CC CC CC CC CC CC CC CC CC ................
00416470 CC CC CC CC CC CC CC CC CC CC CC CC CC CC CC CC ................
00416480 CC CC CC CC CC CC CC CC CC CC CC CC CC CC CC CC ................
00416490 CC CC CC CC CC CC CC CC CC CC CC CC CC CC CC CC ................
004164A0 CC CC CC CC CC CC CC CC CC CC CC CC CC CC CC CC ................
004164B0 CC CC CC CC CC CC CC CC CC CC CC CC CC CC CC CC ................
004164C0 CC CC CC CC CC CC CC CC CC CC CC CC CC CC CC CC ................
004164D0 CC CC CC CC CC CC CC CC CC CC CC CC CC CC CC CC ................
004164E0 CC CC CC CC CC CC CC CC CC CC CC CC CC CC CC CC ................
004164F0 CC CC CC CC CC CC CC CC CC CC CC CC CC CC CC CC ................
00416500 CC CC CC CC CC CC CC CC CC CC CC CC CC CC CC CC ................
00416510 CC CC CC CC CC CC CC CC CC CC CC CC CC CC CC CC ................
00416520 CC CC CC CC CC CC CC CC CC CC CC CC CC CC CC CC ................
00416530 CC CC CC CC CC CC CC CC CC CC CC CC CC CC CC CC ................
00416540 CC CC CC CC CC CC CC CC CC CC CC CC CC CC CC CC ................
00416550 CC CC CC CC CC CC CC CC CC CC CC CC CC CC CC CC ................
00416560 CC CC CC CC CC CC CC CC CC CC CC CC CC CC CC CC ................
00416570 CC CC CC CC CC CC CC CC CC CC CC CC CC CC CC CC ................
00416580 CC CC CC CC CC CC CC CC CC CC CC CC CC CC CC CC ................
00416590 CC CC CC CC CC CC CC CC CC CC CC CC CC CC CC CC ................
004165A0 CC CC CC CC CC CC CC CC CC CC CC CC CC CC CC CC ................
004165B0 CC CC CC CC CC CC CC CC CC CC CC CC CC CC CC CC ................
004165C0 CC CC CC CC CC CC CC CC CC CC CC CC CC CC CC CC ................
004165D0 CC CC CC CC CC CC CC CC CC CC CC CC CC CC CC CC ................
004165E0 CC CC CC CC CC CC CC CC CC CC CC CC CC CC CC CC ................
004165F0 CC CC CC CC CC CC CC CC CC CC CC CC CC CC CC CC ................
00416600 CC CC CC CC CC CC CC CC CC CC CC CC CC CC CC CC ................
00416610 CC CC CC CC CC CC CC CC CC CC CC CC CC CC CC CC ................
00416620 CC CC CC CC CC CC CC CC CC CC CC CC CC CC CC CC ................
00416630 CC CC CC CC CC CC CC CC CC CC CC CC CC CC CC CC ................
00416640 CC CC CC CC CC CC CC CC CC CC CC CC CC CC CC CC ................
00416650 CC CC CC CC CC CC CC CC CC CC CC CC CC CC CC CC ................
00416660 CC CC CC CC CC CC CC CC CC CC CC CC CC CC CC CC ................
00416670 CC CC CC CC CC CC CC CC CC CC CC CC CC CC CC CC ................
00416680 CC CC CC CC CC CC CC CC CC CC CC CC CC CC CC CC ................
00416690 CC CC CC CC CC CC CC CC CC CC CC CC CC CC CC CC ................
004166A0 CC CC CC CC CC CC CC CC CC CC CC CC CC CC CC CC ................
004166B0 CC CC CC CC CC CC CC CC CC CC CC CC CC CC CC CC ................
004166C0 CC CC CC CC CC CC CC CC CC CC CC CC CC CC CC CC ................
004166D0 CC CC CC CC CC CC CC CC CC CC CC CC CC CC CC CC ................
004166E0 CC CC CC CC CC CC CC CC CC CC CC CC CC CC CC CC ................
004166F0 CC CC CC CC CC CC CC CC CC CC CC CC CC CC CC CC ................
00416700 CC CC CC CC CC CC CC CC CC CC CC CC CC CC CC CC ................
00416710 CC CC CC CC CC CC CC CC CC CC CC CC CC CC CC CC ................
00416720 CC CC CC CC CC CC CC CC CC CC CC CC CC CC CC CC ................
00416730 CC CC CC CC CC CC CC CC CC CC CC CC CC CC CC CC ................
00416740 CC CC CC CC CC CC CC CC CC CC CC CC CC CC CC CC ................
00416750 CC CC CC CC CC CC CC CC CC CC CC CC CC CC CC CC ................
00416760 CC CC CC CC CC CC CC CC CC CC CC CC CC CC CC CC ................
00416770 CC CC CC CC CC CC CC CC CC CC CC CC CC CC CC CC ................
00416780 CC CC CC CC CC CC CC CC CC CC CC CC CC CC CC CC ................
00416790 CC CC CC CC CC CC CC CC CC CC CC CC CC CC CC CC ................
004167A0 CC CC CC CC CC CC CC CC CC CC CC CC CC CC CC CC ................
004167B0 CC CC CC CC CC CC CC CC CC CC CC CC CC CC CC CC ................
004167C0 CC CC CC CC CC CC CC CC CC CC CC CC CC CC CC CC ................
004167D0 CC CC CC CC CC CC CC CC CC CC CC CC CC CC CC CC ................
004167E0 CC CC CC CC CC CC CC CC CC CC CC CC CC CC CC CC ................
004167F0 CC CC CC CC CC CC CC CC CC CC CC CC CC CC CC CC ................
00416800 CC CC CC CC CC CC CC CC CC CC CC CC CC CC CC CC ................
00416810 CC CC CC CC CC CC CC CC CC CC CC CC CC CC CC CC ................
00416820 CC CC CC CC CC CC CC CC CC CC CC CC CC CC CC CC ................
00416830 CC CC CC CC CC CC CC CC CC CC CC CC CC CC CC CC ................
00416840 CC CC CC CC CC CC CC CC CC CC CC CC CC CC CC CC ................
00416850 CC CC CC CC CC CC CC CC CC CC CC CC CC CC CC CC ................
00416860 CC CC CC CC CC CC CC CC CC CC CC CC CC CC CC CC ................
00416870 CC CC CC CC CC CC CC CC CC CC CC CC CC CC CC CC ................
00416880 CC CC CC CC CC CC CC CC CC CC CC CC CC CC CC 00 ................
00416890 00 00 00 00 00 00 00 00 00 00 00 00 00 00 00 00 ................
; ...
;;; Segment .rdata (00417000)
00417000 00 00 00 00 00 00 00 00 00 00 00 00 00 00 00 00 ................
; ...
00417100 00 00 00 00 F0 23 41 00 00 00 00 00 00 00 00 00 .....#A.........
00417110 00 00 00 00 00 00 00 00 00 00 00 00 00 00 00 00 ................
; ...
00417410 10 23 41 00 00 00 00 00 00 00 00 00 00 00 00 00 .#A.............
00417420 00 00 00 00 00 00 00 00 00 00 00 00 00 00 00 00 ................
; ...
00417510 00 00 00 00 E0 23 41 00 00 00 00 00 00 00 00 00 .....#A.........
00417520 00 00 00 00 00 00 00 00 00 00 00 00 00 00 00 00 ................
; ...
00417B30 44 00 65 00 66 00 61 00 75 00 6C 00 74 00 20 00 D.e.f.a.u.l.t. .
00417B40 6D 00 65 00 73 00 73 00 61 00 67 00 65 00 20 00 m.e.s.s.a.g.e. .
00417B50 66 00 72 00 6F 00 6D 00 20 00 63 00 6C 00 69 00 f.r.o.m. .c.l.i.
00417B60 65 00 6E 00 74 00 2E 00 00 00 00 00 00 00 00 00 e.n.t...........
00417B70 00 00 00 00 00 00 00 00 5C 00 5C 00 2E 00 5C 00 ........\.\...\.
00417B80 70 00 69 00 70 00 65 00 5C 00 6D 00 79 00 6E 00 p.i.p.e.\.m.y.n.
00417B90 61 00 6D 00 65 00 64 00 70 00 69 00 70 00 65 00 a.m.e.d.p.i.p.e.
00417BA0 00 00 00 00 00 00 00 00 00 00 00 00 43 00 6F 00 ............C.o.
00417BB0 75 00 6C 00 64 00 20 00 6E 00 6F 00 74 00 20 00 u.l.d. .n.o.t. .
00417BC0 6F 00 70 00 65 00 6E 00 20 00 70 00 69 00 70 00 o.p.e.n. .p.i.p.
00417BD0 65 00 2E 00 20 00 47 00 4C 00 45 00 3D 00 25 00 e... .G.L.E.=.%.
00417BE0 64 00 0A 00 00 00 00 00 00 00 00 00 00 00 00 00 d...............
00417BF0 00 00 00 00 43 6F 75 6C 64 20 6E 6F 74 20 6F 70 ....Could not op
00417C00 65 6E 20 70 69 70 65 3A 20 32 30 20 73 65 63 6F en pipe: 20 seco
00417C10 6E 64 20 77 61 69 74 20 74 69 6D 65 64 20 6F 75 nd wait timed ou
00417C20 74 2E 00 00 00 00 00 00 00 00 00 00 00 00 00 00 t...............
00417C30 53 00 65 00 74 00 4E 00 61 00 6D 00 65 00 64 00 S.e.t.N.a.m.e.d.
00417C40 50 00 69 00 70 00 65 00 48 00 61 00 6E 00 64 00 P.i.p.e.H.a.n.d.
00417C50 6C 00 65 00 53 00 74 00 61 00 74 00 65 00 20 00 l.e.S.t.a.t.e. .
00417C60 66 00 61 00 69 00 6C 00 65 00 64 00 2E 00 20 00 f.a.i.l.e.d... .
00417C70 47 00 4C 00 45 00 3D 00 25 00 64 00 0A 00 00 00 G.L.E.=.%.d.....
00417C80 00 00 00 00 00 00 00 00 00 00 00 00 00 00 00 00 ................
00417C90 53 00 65 00 6E 00 64 00 69 00 6E 00 67 00 20 00 S.e.n.d.i.n.g. .
00417CA0 25 00 64 00 20 00 62 00 79 00 74 00 65 00 20 00 %.d. .b.y.t.e. .
00417CB0 6D 00 65 00 73 00 73 00 61 00 67 00 65 00 3A 00 m.e.s.s.a.g.e.:.
00417CC0 20 00 22 00 25 00 73 00 22 00 0A 00 00 00 00 00  .".%.s.".......
00417CD0 00 00 00 00 00 00 00 00 00 00 00 00 00 00 00 00 ................
00417CE0 57 00 72 00 69 00 74 00 65 00 46 00 69 00 6C 00 W.r.i.t.e.F.i.l.
00417CF0 65 00 20 00 74 00 6F 00 20 00 70 00 69 00 70 00 e. .t.o. .p.i.p.
00417D00 65 00 20 00 66 00 61 00 69 00 6C 00 65 00 64 00 e. .f.a.i.l.e.d.
00417D10 2E 00 20 00 47 00 4C 00 45 00 3D 00 25 00 64 00 .. .G.L.E.=.%.d.
00417D20 0A 00 00 00 00 00 00 00 00 00 00 00 00 00 00 00 ................
00417D30 00 00 00 00 0A 4D 65 73 73 61 67 65 20 73 65 6E .....Message sen
00417D40 74 20 74 6F 20 73 65 72 76 65 72 2C 20 72 65 63 t to server, rec
00417D50 65 69 76 69 6E 67 20 72 65 70 6C 79 20 61 73 20 eiving reply as 
00417D60 66 6F 6C 6C 6F 77 73 3A 0A 00 00 00 00 00 00 00 follows:........
00417D70 00 00 00 00 22 00 25 00 73 00 22 00 0A 00 00 00 ....".%.s.".....
00417D80 00 00 00 00 00 00 00 00 52 00 65 00 61 00 64 00 ........R.e.a.d.
00417D90 46 00 69 00 6C 00 65 00 20 00 66 00 72 00 6F 00 F.i.l.e. .f.r.o.
00417DA0 6D 00 20 00 70 00 69 00 70 00 65 00 20 00 66 00 m. .p.i.p.e. .f.
00417DB0 61 00 69 00 6C 00 65 00 64 00 2E 00 20 00 47 00 a.i.l.e.d... .G.
00417DC0 4C 00 45 00 3D 00 25 00 64 00 0A 00 00 00 00 00 L.E.=.%.d.......
00417DD0 00 00 00 00 00 00 00 00 00 00 00 00 00 00 00 00 ................
00417DE0 0A 3C 45 6E 64 20 6F 66 20 6D 65 73 73 61 67 65 .<End of message
00417DF0 2C 20 70 72 65 73 73 20 45 4E 54 45 52 20 74 6F , press ENTER to
00417E00 20 74 65 72 6D 69 6E 61 74 65 20 63 6F 6E 6E 65  terminate conne
00417E10 63 74 69 6F 6E 20 61 6E 64 20 65 78 69 74 3E 00 ction and exit>.
00417E20 00 00 00 00 00 00 00 00 00 00 00 00 E8 7E 41 00 .............~A.
00417E30 F8 7F 41 00 50 81 41 00 74 81 41 00 B4 81 41 00 ..A.P.A.t.A...A.
00417E40 E8 81 41 00 01 00 00 00 00 00 00 00 01 00 00 00 ..A.............
00417E50 01 00 00 00 01 00 00 00 01 00 00 00 53 74 61 63 ............Stac
00417E60 6B 20 61 72 6F 75 6E 64 20 74 68 65 20 76 61 72 k around the var
00417E70 69 61 62 6C 65 20 27 00 27 20 77 61 73 20 63 6F iable '.' was co
00417E80 72 72 75 70 74 65 64 2E 00 00 00 00 54 68 65 20 rrupted.....The 
00417E90 76 61 72 69 61 62 6C 65 20 27 00 00 27 20 69 73 variable '..' is
00417EA0 20 62 65 69 6E 67 20 75 73 65 64 20 77 69 74 68  being used with
00417EB0 6F 75 74 20 62 65 69 6E 67 20 69 6E 69 74 69 61 out being initia
00417EC0 6C 69 7A 65 64 2E 00 00 00 00 00 00 00 00 00 00 lized...........
00417ED0 00 00 00 00 00 00 00 00 00 00 00 00 00 00 00 00 ................
00417EE0 00 00 00 00 00 00 00 00 54 68 65 20 76 61 6C 75 ........The valu
00417EF0 65 20 6F 66 20 45 53 50 20 77 61 73 20 6E 6F 74 e of ESP was not
00417F00 20 70 72 6F 70 65 72 6C 79 20 73 61 76 65 64 20  properly saved 
00417F10 61 63 72 6F 73 73 20 61 20 66 75 6E 63 74 69 6F across a functio
00417F20 6E 20 63 61 6C 6C 2E 20 20 54 68 69 73 20 69 73 n call.  This is
00417F30 20 75 73 75 61 6C 6C 79 20 61 20 72 65 73 75 6C  usually a resul
00417F40 74 20 6F 66 20 63 61 6C 6C 69 6E 67 20 61 20 66 t of calling a f
00417F50 75 6E 63 74 69 6F 6E 20 64 65 63 6C 61 72 65 64 unction declared
00417F60 20 77 69 74 68 20 6F 6E 65 20 63 61 6C 6C 69 6E  with one callin
00417F70 67 20 63 6F 6E 76 65 6E 74 69 6F 6E 20 77 69 74 g convention wit
00417F80 68 20 61 20 66 75 6E 63 74 69 6F 6E 20 70 6F 69 h a function poi
00417F90 6E 74 65 72 20 64 65 63 6C 61 72 65 64 20 77 69 nter declared wi
00417FA0 74 68 20 61 20 64 69 66 66 65 72 65 6E 74 20 63 th a different c
00417FB0 61 6C 6C 69 6E 67 20 63 6F 6E 76 65 6E 74 69 6F alling conventio
00417FC0 6E 2E 0A 0D 00 00 00 00 00 00 00 00 00 00 00 00 n...............
00417FD0 00 00 00 00 00 00 00 00 00 00 00 00 00 00 00 00 ................
; ...
00417FF0 00 00 00 00 00 00 00 00 41 20 63 61 73 74 20 74 ........A cast t
00418000 6F 20 61 20 73 6D 61 6C 6C 65 72 20 64 61 74 61 o a smaller data
00418010 20 74 79 70 65 20 68 61 73 20 63 61 75 73 65 64  type has caused
00418020 20 61 20 6C 6F 73 73 20 6F 66 20 64 61 74 61 2E  a loss of data.
00418030 20 20 49 66 20 74 68 69 73 20 77 61 73 20 69 6E   If this was in
00418040 74 65 6E 74 69 6F 6E 61 6C 2C 20 79 6F 75 20 73 tentional, you s
00418050 68 6F 75 6C 64 20 6D 61 73 6B 20 74 68 65 20 73 hould mask the s
00418060 6F 75 72 63 65 20 6F 66 20 74 68 65 20 63 61 73 ource of the cas
00418070 74 20 77 69 74 68 20 74 68 65 20 61 70 70 72 6F t with the appro
00418080 70 72 69 61 74 65 20 62 69 74 6D 61 73 6B 2E 20 priate bitmask. 
00418090 20 46 6F 72 20 65 78 61 6D 70 6C 65 3A 20 20 0A  For example:  .
004180A0 0D 09 63 68 61 72 20 63 20 3D 20 28 69 20 26 20 ..char c = (i & 
004180B0 30 78 46 46 29 3B 0A 0D 43 68 61 6E 67 69 6E 67 0xFF);..Changing
004180C0 20 74 68 65 20 63 6F 64 65 20 69 6E 20 74 68 69  the code in thi
004180D0 73 20 77 61 79 20 77 69 6C 6C 20 6E 6F 74 20 61 s way will not a
004180E0 66 66 65 63 74 20 74 68 65 20 71 75 61 6C 69 74 ffect the qualit
004180F0 79 20 6F 66 20 74 68 65 20 72 65 73 75 6C 74 69 y of the resulti
00418100 6E 67 20 6F 70 74 69 6D 69 7A 65 64 20 63 6F 64 ng optimized cod
00418110 65 2E 0A 0D 00 00 00 00 00 00 00 00 00 00 00 00 e...............
00418120 00 00 00 00 00 00 00 00 00 00 00 00 00 00 00 00 ................
; ...
00418150 53 74 61 63 6B 20 6D 65 6D 6F 72 79 20 77 61 73 Stack memory was
00418160 20 63 6F 72 72 75 70 74 65 64 0A 0D 00 00 00 00  corrupted......
00418170 00 00 00 00 41 20 6C 6F 63 61 6C 20 76 61 72 69 ....A local vari
00418180 61 62 6C 65 20 77 61 73 20 75 73 65 64 20 62 65 able was used be
00418190 66 6F 72 65 20 69 74 20 77 61 73 20 69 6E 69 74 fore it was init
004181A0 69 61 6C 69 7A 65 64 0A 0D 00 00 00 00 00 00 00 ialized.........
004181B0 00 00 00 00 53 74 61 63 6B 20 6D 65 6D 6F 72 79 ....Stack memory
004181C0 20 61 72 6F 75 6E 64 20 5F 61 6C 6C 6F 63 61 20  around _alloca 
004181D0 77 61 73 20 63 6F 72 72 75 70 74 65 64 0A 0D 00 was corrupted...
004181E0 00 00 00 00 00 00 00 00 55 6E 6B 6E 6F 77 6E 20 ........Unknown 
004181F0 52 75 6E 74 69 6D 65 20 43 68 65 63 6B 20 45 72 Runtime Check Er
00418200 72 6F 72 0A 0D 00 00 00 00 00 00 00 00 00 00 00 ror.............
00418210 52 00 75 00 6E 00 74 00 69 00 6D 00 65 00 20 00 R.u.n.t.i.m.e. .
00418220 43 00 68 00 65 00 63 00 6B 00 20 00 45 00 72 00 C.h.e.c.k. .E.r.
00418230 72 00 6F 00 72 00 2E 00 0A 00 0D 00 20 00 55 00 r.o.r....... .U.
00418240 6E 00 61 00 62 00 6C 00 65 00 20 00 74 00 6F 00 n.a.b.l.e. .t.o.
00418250 20 00 64 00 69 00 73 00 70 00 6C 00 61 00 79 00  .d.i.s.p.l.a.y.
00418260 20 00 52 00 54 00 43 00 20 00 4D 00 65 00 73 00  .R.T.C. .M.e.s.
00418270 73 00 61 00 67 00 65 00 2E 00 00 00 00 00 00 00 s.a.g.e.........
00418280 00 00 00 00 00 00 00 00 00 00 00 00 00 00 00 00 ................
00418290 00 00 00 00 00 00 00 00 52 00 75 00 6E 00 2D 00 ........R.u.n.-.
004182A0 54 00 69 00 6D 00 65 00 20 00 43 00 68 00 65 00 T.i.m.e. .C.h.e.
004182B0 63 00 6B 00 20 00 46 00 61 00 69 00 6C 00 75 00 c.k. .F.a.i.l.u.
004182C0 72 00 65 00 20 00 23 00 25 00 64 00 20 00 2D 00 r.e. .#.%.d. .-.
004182D0 20 00 25 00 73 00 00 00 00 00 00 00 00 00 00 00  .%.s...........
004182E0 00 00 00 00 55 6E 6B 6E 6F 77 6E 20 46 69 6C 65 ....Unknown File
004182F0 6E 61 6D 65 00 00 00 00 55 6E 6B 6E 6F 77 6E 20 name....Unknown 
00418300 4D 6F 64 75 6C 65 20 4E 61 6D 65 00 00 00 00 00 Module Name.....
00418310 52 75 6E 2D 54 69 6D 65 20 43 68 65 63 6B 20 46 Run-Time Check F
00418320 61 69 6C 75 72 65 20 23 25 64 20 2D 20 25 73 00 ailure #%d - %s.
00418330 00 00 00 00 00 00 00 00 53 74 61 63 6B 20 63 6F ........Stack co
00418340 72 72 75 70 74 65 64 20 6E 65 61 72 20 75 6E 6B rrupted near unk
00418350 6E 6F 77 6E 20 76 61 72 69 61 62 6C 65 00 00 00 nown variable...
00418360 00 00 00 00 00 00 00 00 25 2E 32 58 20 00 00 00 ........%.2X ...
00418370 53 74 61 63 6B 20 61 72 65 61 20 61 72 6F 75 6E Stack area aroun
00418380 64 20 5F 61 6C 6C 6F 63 61 20 6D 65 6D 6F 72 79 d _alloca memory
00418390 20 72 65 73 65 72 76 65 64 20 62 79 20 74 68 69  reserved by thi
004183A0 73 20 66 75 6E 63 74 69 6F 6E 20 69 73 20 63 6F s function is co
004183B0 72 72 75 70 74 65 64 0A 00 00 00 00 00 00 00 00 rrupted.........
004183C0 00 00 00 00 00 00 00 00 0A 00 00 00 3E 20 00 00 ............> ..
004183D0 0A 44 61 74 61 3A 20 3C 00 00 00 00 0A 41 6C 6C .Data: <.....All
004183E0 6F 63 61 74 69 6F 6E 20 6E 75 6D 62 65 72 20 77 ocation number w
004183F0 69 74 68 69 6E 20 74 68 69 73 20 66 75 6E 63 74 ithin this funct
00418400 69 6F 6E 3A 20 00 00 00 00 00 00 00 00 00 00 00 ion: ...........
00418410 0A 53 69 7A 65 3A 20 00 00 00 00 00 0A 41 64 64 .Size: ......Add
00418420 72 65 73 73 3A 20 30 78 00 00 00 00 00 00 00 00 ress: 0x........
00418430 53 74 61 63 6B 20 61 72 65 61 20 61 72 6F 75 6E Stack area aroun
00418440 64 20 5F 61 6C 6C 6F 63 61 20 6D 65 6D 6F 72 79 d _alloca memory
00418450 20 72 65 73 65 72 76 65 64 20 62 79 20 74 68 69  reserved by thi
00418460 73 20 66 75 6E 63 74 69 6F 6E 20 69 73 20 63 6F s function is co
00418470 72 72 75 70 74 65 64 00 00 00 00 00 00 00 00 00 rrupted.........
00418480 00 00 00 00 00 00 00 00 25 73 25 73 25 70 25 73 ........%s%s%p%s
00418490 25 7A 64 25 73 25 64 25 73 25 73 25 73 25 73 25 %zd%s%d%s%s%s%s%
004184A0 73 00 00 00 00 00 00 00 41 20 76 61 72 69 61 62 s.......A variab
004184B0 6C 65 20 69 73 20 62 65 69 6E 67 20 75 73 65 64 le is being used
004184C0 20 77 69 74 68 6F 75 74 20 62 65 69 6E 67 20 69  without being i
004184D0 6E 69 74 69 61 6C 69 7A 65 64 2E 00 00 00 00 00 nitialized......
004184E0 00 00 00 00 00 00 00 00 50 A1 41 00 A0 A1 41 00 ........P.A...A.
004184F0 00 00 00 00 0C 85 41 00 2C 85 41 00 60 85 41 00 ......A.,.A.`.A.
00418500 7C 85 41 00 B0 85 41 00 00 00 00 00 53 74 61 63 |.A...A.....Stac
00418510 6B 20 70 6F 69 6E 74 65 72 20 63 6F 72 72 75 70 k pointer corrup
00418520 74 69 6F 6E 00 00 00 00 00 00 00 00 43 61 73 74 tion........Cast
00418530 20 74 6F 20 73 6D 61 6C 6C 65 72 20 74 79 70 65  to smaller type
00418540 20 63 61 75 73 69 6E 67 20 6C 6F 73 73 20 6F 66  causing loss of
00418550 20 64 61 74 61 00 00 00 00 00 00 00 00 00 00 00  data...........
00418560 53 74 61 63 6B 20 6D 65 6D 6F 72 79 20 63 6F 72 Stack memory cor
00418570 72 75 70 74 69 6F 6E 00 00 00 00 00 4C 6F 63 61 ruption.....Loca
00418580 6C 20 76 61 72 69 61 62 6C 65 20 75 73 65 64 20 l variable used 
00418590 62 65 66 6F 72 65 20 69 6E 69 74 69 61 6C 69 7A before initializ
004185A0 61 74 69 6F 6E 00 00 00 00 00 00 00 00 00 00 00 ation...........
004185B0 53 74 61 63 6B 20 61 72 6F 75 6E 64 20 5F 61 6C Stack around _al
004185C0 6C 6F 63 61 20 63 6F 72 72 75 70 74 65 64 00 00 loca corrupted..
004185D0 00 00 00 00 00 00 00 00 62 00 69 00 6E 00 5C 00 ........b.i.n.\.
004185E0 4D 00 53 00 50 00 44 00 42 00 31 00 34 00 30 00 M.S.P.D.B.1.4.0.
004185F0 2E 00 44 00 4C 00 4C 00 00 00 00 00 56 00 43 00 ..D.L.L.....V.C.
00418600 52 00 55 00 4E 00 54 00 49 00 4D 00 45 00 31 00 R.U.N.T.I.M.E.1.
00418610 34 00 30 00 44 00 2E 00 64 00 6C 00 6C 00 00 00 4.0.D...d.l.l...
00418620 00 00 00 00 00 00 00 00 00 00 00 00 00 00 00 00 ................
00418630 61 00 70 00 69 00 2D 00 6D 00 73 00 2D 00 77 00 a.p.i.-.m.s.-.w.
00418640 69 00 6E 00 2D 00 63 00 6F 00 72 00 65 00 2D 00 i.n.-.c.o.r.e.-.
00418650 72 00 65 00 67 00 69 00 73 00 74 00 72 00 79 00 r.e.g.i.s.t.r.y.
00418660 2D 00 6C 00 31 00 2D 00 31 00 2D 00 30 00 2E 00 -.l.1.-.1.-.0...
00418670 64 00 6C 00 6C 00 00 00 00 00 00 00 00 00 00 00 d.l.l...........
00418680 00 00 00 00 00 00 00 00 61 00 64 00 76 00 61 00 ........a.d.v.a.
00418690 70 00 69 00 33 00 32 00 2E 00 64 00 6C 00 6C 00 p.i.3.2...d.l.l.
004186A0 00 00 00 00 00 00 00 00 52 65 67 4F 70 65 6E 4B ........RegOpenK
004186B0 65 79 45 78 57 00 00 00 52 65 67 51 75 65 72 79 eyExW...RegQuery
004186C0 56 61 6C 75 65 45 78 57 00 00 00 00 52 65 67 43 ValueExW....RegC
004186D0 6C 6F 73 65 4B 65 79 00 00 00 00 00 00 00 00 00 loseKey.........
004186E0 53 00 4F 00 46 00 54 00 57 00 41 00 52 00 45 00 S.O.F.T.W.A.R.E.
004186F0 5C 00 57 00 6F 00 77 00 36 00 34 00 33 00 32 00 \.W.o.w.6.4.3.2.
00418700 4E 00 6F 00 64 00 65 00 5C 00 4D 00 69 00 63 00 N.o.d.e.\.M.i.c.
00418710 72 00 6F 00 73 00 6F 00 66 00 74 00 5C 00 56 00 r.o.s.o.f.t.\.V.
00418720 69 00 73 00 75 00 61 00 6C 00 53 00 74 00 75 00 i.s.u.a.l.S.t.u.
00418730 64 00 69 00 6F 00 5C 00 31 00 34 00 2E 00 30 00 d.i.o.\.1.4...0.
00418740 5C 00 53 00 65 00 74 00 75 00 70 00 5C 00 56 00 \.S.e.t.u.p.\.V.
00418750 43 00 00 00 00 00 00 00 00 00 00 00 00 00 00 00 C...............
00418760 00 00 00 00 00 00 00 00 00 00 00 00 50 00 72 00 ............P.r.
00418770 6F 00 64 00 75 00 63 00 74 00 44 00 69 00 72 00 o.d.u.c.t.D.i.r.
00418780 00 00 00 00 00 00 00 00 44 00 4C 00 4C 00 00 00 ........D.L.L...
00418790 00 00 00 00 4D 00 53 00 50 00 44 00 42 00 31 00 ....M.S.P.D.B.1.
004187A0 34 00 30 00 00 00 00 00 00 00 00 00 4D 00 53 00 4.0.........M.S.
004187B0 50 00 44 00 42 00 31 00 34 00 30 00 00 00 00 00 P.D.B.1.4.0.....
004187C0 00 00 00 00 50 44 42 4F 70 65 6E 56 61 6C 69 64 ....PDBOpenValid
004187D0 61 74 65 35 00 00 00 00 72 00 00 00 00 00 00 00 ate5....r.......
004187E0 00 00 00 00 1A B7 A5 59 00 00 00 00 02 00 00 00 .......Y........
004187F0 67 00 00 00 0C 8A 01 00 0C 78 00 00 00 00 00 00 g........x......
00418800 1A B7 A5 59 00 00 00 00 0C 00 00 00 14 00 00 00 ...Y............
00418810 74 8A 01 00 74 78 00 00 98 00 00 00 00 00 00 00 t...tx..........
00418820 00 00 00 00 00 00 00 00 00 00 00 00 00 00 00 00 ................
; ...
00418850 00 00 00 00 00 A0 41 00 00 00 00 00 00 00 00 00 ......A.........
00418860 00 C0 41 00 00 00 00 00 00 00 00 00 00 00 00 00 ..A.............
00418870 00 01 00 00 00 00 00 00 00 00 00 00 00 00 00 00 ................
00418880 00 00 00 00 00 00 00 00 00 00 00 00 00 00 00 00 ................
; ...
00418A00 00 00 00 00 00 00 00 00 00 00 00 00 52 53 44 53 ............RSDS
00418A10 AA CE 3A 38 7D 04 EA 48 BC B4 54 04 04 B7 9D 0D ..:8}..H..T.....
00418A20 02 00 00 00 43 3A 5C 55 73 65 72 73 5C 6E 6F 72 ....C:\Users\nor
00418A30 61 68 5C 57 6F 72 6B 4E 53 74 75 64 79 5C 67 69 ah\WorkNStudy\gi
00418A40 74 5C 44 75 61 6C 54 72 61 63 65 5C 74 65 73 74 t\DualTrace\test
00418A50 5C 6E 61 6D 65 64 70 69 70 65 5C 63 6C 69 65 6E \namedpipe\clien
00418A60 74 5C 44 65 62 75 67 5C 63 6C 69 65 6E 74 2E 70 t\Debug\client.p
00418A70 64 62 00 00 00 00 00 00 26 00 00 00 26 00 00 00 db......&...&...
00418A80 02 00 00 00 24 00 00 00 00 00 00 00 00 00 00 00 ....$...........
00418A90 00 00 00 00 00 00 00 00 00 00 00 00 00 00 00 00 ................
; ...
00418CA0 00 00 00 00 4A 11 41 00 00 00 00 00 00 00 00 00 ....J.A.........
00418CB0 00 00 00 00 00 00 00 00 00 00 00 00 00 00 00 00 ................
; ...
00418FB0 40 11 41 00 00 00 00 00 00 00 00 00 00 00 00 00 @.A.............
00418FC0 00 00 00 00 00 00 00 00 00 00 00 00 00 00 00 00 ................
; ...
004191B0 00 00 00 00 00 00 00 00 FE FF FF FF 00 00 00 00 ................
004191C0 B0 FF FF FF 00 00 00 00 FE FF FF FF CC 25 41 00 .............%A.
004191D0 E7 25 41 00 00 00 00 00 FE FF FF FF 00 00 00 00 .%A.............
004191E0 BC FF FF FF 00 00 00 00 FE FF FF FF F6 27 41 00 .............'A.
004191F0 09 28 41 00 00 00 00 00 FE FF FF FF 00 00 00 00 .(A.............
00419200 BC FF FF FF 00 00 00 00 FE FF FF FF C8 28 41 00 .............(A.
00419210 DB 28 41 00 00 00 00 00 FE FF FF FF 00 00 00 00 .(A.............
00419220 B8 FF FF FF 00 00 00 00 FE FF FF FF 76 3B 41 00 ............v;A.
00419230 9D 3B 41 00 00 00 00 00 00 00 00 00 00 00 00 00 .;A.............
00419240 00 00 00 00 00 00 00 00 00 00 00 00 00 00 00 00 ................
; ...
;;; Segment .data (0041A000)
0041A000 4E E6 40 BB B1 19 BF 44 00 00 00 00 01 00 00 00 N.@....D........
0041A010 01 00 00 00 01 00 00 00 01 00 00 00 01 00 00 00 ................
0041A020 00 00 00 00 FF FF FF FF 01 00 00 00 01 00 00 00 ................
0041A030 01 00 00 00 00 00 00 00 00 00 00 00 00 00 00 00 ................
0041A040 00 00 00 00 00 00 00 00 00 00 00 00 00 00 00 00 ................
; ...
;;; Segment .idata (0041B000)
__imp__CreateFileW		; 0041B000
	dd	0x0001B440
__imp__ReadFile		; 0041B004
	dd	0x0001B44E
__imp__WriteFile		; 0041B008
	dd	0x0001B45A
__imp__CloseHandle		; 0041B00C
	dd	0x0001B466
__imp__GetLastError		; 0041B010
	dd	0x0001B474
__imp__SetNamedPipeHandleState		; 0041B014
	dd	0x0001B484
__imp__WaitNamedPipeW		; 0041B018
	dd	0x0001B49E
__imp__lstrlenW		; 0041B01C
	dd	0x0001B4B0
__imp__FreeLibrary		; 0041B020
	dd	0x0001BA38
__imp__VirtualQuery		; 0041B024
	dd	0x0001BA28
__imp__GetProcessHeap		; 0041B028
	dd	0x0001BA16
__imp__HeapFree		; 0041B02C
	dd	0x0001BA0A
__imp__HeapAlloc		; 0041B030
	dd	0x0001B9FE
__imp__GetModuleHandleW		; 0041B034
	dd	0x0001B9EA
__imp__GetStartupInfoW		; 0041B038
	dd	0x0001B9D8
__imp__InitializeSListHead		; 0041B03C
	dd	0x0001B9C2
__imp__GetSystemTimeAsFileTime		; 0041B040
	dd	0x0001B9A8
__imp__GetCurrentThreadId		; 0041B044
	dd	0x0001B992
__imp__GetCurrentProcessId		; 0041B048
	dd	0x0001B97C
__imp__QueryPerformanceCounter		; 0041B04C
	dd	0x0001B962
__imp__IsProcessorFeaturePresent		; 0041B050
	dd	0x0001B946
__imp__TerminateProcess		; 0041B054
	dd	0x0001B932
__imp__GetCurrentProcess		; 0041B058
	dd	0x0001B91E
__imp__SetUnhandledExceptionFilter		; 0041B05C
	dd	0x0001B900
__imp__UnhandledExceptionFilter		; 0041B060
	dd	0x0001B8E4
__imp__WideCharToMultiByte		; 0041B064
	dd	0x0001B8CE
__imp__MultiByteToWideChar		; 0041B068
	dd	0x0001B8B8
__imp__RaiseException		; 0041B06C
	dd	0x0001B8A6
__imp__IsDebuggerPresent		; 0041B070
	dd	0x0001B892
__imp__GetProcAddress		; 0041B074
	dd	0x0001BA46
0041B078                         00 00 00 00 00 00 00 00         ........
0041B080 00 00 00 00 00 00 00 00 00 00 00 00 00 00 00 00 ................
; ...
0041B0B0 00 00 00 00 00 00 00 00 00 00 00 00             ............   
__imp____vcrt_GetModuleFileNameW		; 0041B0BC
	dd	0x0001B50E
__imp____vcrt_GetModuleHandleW		; 0041B0C0
	dd	0x0001B52A
__imp____vcrt_LoadLibraryExW		; 0041B0C4
	dd	0x0001B544
__imp___except_handler4_common		; 0041B0C8
	dd	0x0001B4F4
__imp____std_type_info_destroy_list		; 0041B0CC
	dd	0x0001B4CA
__imp__memset		; 0041B0D0
	dd	0x0001B4EA
0041B0D4             00 00 00 00 00 00 00 00 00 00 00 00     ............
0041B0E0 00 00 00 00 00 00 00 00 00 00 00 00 00 00 00 00 ................
; ...
0041B100 00 00 00 00                                     ....           
__imp___register_thread_local_exe_atexit_callback		; 0041B104
	dd	0x0001B6E2
__imp___configthreadlocale		; 0041B108
	dd	0x0001B710
__imp___initterm		; 0041B10C
	dd	0x0001B67A
__imp____p__commode		; 0041B110
	dd	0x0001B736
__imp__strcpy_s		; 0041B114
	dd	0x0001B746
__imp__strcat_s		; 0041B118
	dd	0x0001B752
__imp____stdio_common_vsprintf_s		; 0041B11C
	dd	0x0001B75E
__imp___seh_filter_dll		; 0041B120
	dd	0x0001B77A
__imp___configure_narrow_argv		; 0041B124
	dd	0x0001B78C
__imp___initialize_narrow_environment		; 0041B128
	dd	0x0001B7A6
__imp___initialize_onexit_table		; 0041B12C
	dd	0x0001B7C8
__imp___register_onexit_function		; 0041B130
	dd	0x0001B7E4
__imp___execute_onexit_table		; 0041B134
	dd	0x0001B800
__imp___crt_atexit		; 0041B138
	dd	0x0001B818
__imp___crt_at_quick_exit		; 0041B13C
	dd	0x0001B826
__imp___controlfp_s		; 0041B140
	dd	0x0001B83C
__imp___cexit		; 0041B144
	dd	0x0001B6CE
__imp___wmakepath_s		; 0041B148
	dd	0x0001B858
__imp___wsplitpath_s		; 0041B14C
	dd	0x0001B868
__imp__wcscpy_s		; 0041B150
	dd	0x0001B878
__imp____p___wargv		; 0041B154
	dd	0x0001B6C0
__imp___get_initial_wide_environment		; 0041B158
	dd	0x0001B65A
__imp___initialize_wide_environment		; 0041B15C
	dd	0x0001B63A
__imp___configure_wide_argv		; 0041B160
	dd	0x0001B622
__imp____setusermatherr		; 0041B164
	dd	0x0001B60E
__imp___set_app_type		; 0041B168
	dd	0x0001B5FE
__imp___seh_filter_exe		; 0041B16C
	dd	0x0001B5EC
__imp___CrtDbgReportW		; 0041B170
	dd	0x0001B5DA
__imp___CrtDbgReport		; 0041B174
	dd	0x0001B5CA
__imp___getch		; 0041B178
	dd	0x0001B5C0
__imp____stdio_common_vfprintf		; 0041B17C
	dd	0x0001B5A6
__imp__fflush		; 0041B180
	dd	0x0001B59C
__imp____stdio_common_vfwprintf		; 0041B184
	dd	0x0001B580
__imp____acrt_iob_func		; 0041B188
	dd	0x0001B56E
__imp___c_exit		; 0041B18C
	dd	0x0001B6D8
__imp____p___argc		; 0041B190
	dd	0x0001B6B2
__imp___set_fmode		; 0041B194
	dd	0x0001B6A4
__imp___exit		; 0041B198
	dd	0x0001B69C
__imp__exit		; 0041B19C
	dd	0x0001B694
__imp__terminate		; 0041B1A0
	dd	0x0001B84C
__imp___initterm_e		; 0041B1A4
	dd	0x0001B686
__imp___set_new_mode		; 0041B1A8
	dd	0x0001B726
0041B1AC                                     00 00 00 00             ....
0041B1B0 00 00 00 00 00 00 00 00 00 00 00 00 00 00 00 00 ................
; ...
0041B1F0 00 00 00 00 00 00 00 00 48 B2 01 00 00 00 00 00 ........H.......
0041B200 00 00 00 00 BC B4 01 00 00 B0 01 00 04 B3 01 00 ................
0041B210 00 00 00 00 00 00 00 00 5C B5 01 00 BC B0 01 00 ........\.......
0041B220 4C B3 01 00 00 00 00 00 00 00 00 00 84 B8 01 00 L...............
0041B230 04 B1 01 00 00 00 00 00 00 00 00 00 00 00 00 00 ................
0041B240 00 00 00 00 00 00 00 00                         ........       
l0041B248	dd	0x0001B440
l0041B24C	dd	0x0001B44E
l0041B250	dd	0x0001B45A
l0041B254	dd	0x0001B466
l0041B258	dd	0x0001B474
l0041B25C	dd	0x0001B484
l0041B260	dd	0x0001B49E
l0041B264	dd	0x0001B4B0
l0041B268	dd	0x0001BA38
l0041B26C	dd	0x0001BA28
l0041B270	dd	0x0001BA16
l0041B274	dd	0x0001BA0A
l0041B278	dd	0x0001B9FE
l0041B27C	dd	0x0001B9EA
l0041B280	dd	0x0001B9D8
l0041B284	dd	0x0001B9C2
l0041B288	dd	0x0001B9A8
l0041B28C	dd	0x0001B992
l0041B290	dd	0x0001B97C
l0041B294	dd	0x0001B962
l0041B298	dd	0x0001B946
l0041B29C	dd	0x0001B932
l0041B2A0	dd	0x0001B91E
l0041B2A4	dd	0x0001B900
l0041B2A8	dd	0x0001B8E4
l0041B2AC	dd	0x0001B8CE
l0041B2B0	dd	0x0001B8B8
l0041B2B4	dd	0x0001B8A6
l0041B2B8	dd	0x0001B892
l0041B2BC	dd	0x0001BA46
0041B2C0 00 00 00 00 00 00 00 00 00 00 00 00 00 00 00 00 ................
; ...
0041B300 00 00 00 00                                     ....           
l0041B304	dd	0x0001B50E
l0041B308	dd	0x0001B52A
l0041B30C	dd	0x0001B544
l0041B310	dd	0x0001B4F4
l0041B314	dd	0x0001B4CA
l0041B318	dd	0x0001B4EA
0041B31C                                     00 00 00 00             ....
0041B320 00 00 00 00 00 00 00 00 00 00 00 00 00 00 00 00 ................
; ...
0041B340 00 00 00 00 00 00 00 00 00 00 00 00             ............   
l0041B34C	dd	0x0001B6E2
l0041B350	dd	0x0001B710
l0041B354	dd	0x0001B67A
l0041B358	dd	0x0001B736
l0041B35C	dd	0x0001B746
l0041B360	dd	0x0001B752
l0041B364	dd	0x0001B75E
l0041B368	dd	0x0001B77A
l0041B36C	dd	0x0001B78C
l0041B370	dd	0x0001B7A6
l0041B374	dd	0x0001B7C8
l0041B378	dd	0x0001B7E4
l0041B37C	dd	0x0001B800
l0041B380	dd	0x0001B818
l0041B384	dd	0x0001B826
l0041B388	dd	0x0001B83C
l0041B38C	dd	0x0001B6CE
l0041B390	dd	0x0001B858
l0041B394	dd	0x0001B868
l0041B398	dd	0x0001B878
l0041B39C	dd	0x0001B6C0
l0041B3A0	dd	0x0001B65A
l0041B3A4	dd	0x0001B63A
l0041B3A8	dd	0x0001B622
l0041B3AC	dd	0x0001B60E
l0041B3B0	dd	0x0001B5FE
l0041B3B4	dd	0x0001B5EC
l0041B3B8	dd	0x0001B5DA
l0041B3BC	dd	0x0001B5CA
l0041B3C0	dd	0x0001B5C0
l0041B3C4	dd	0x0001B5A6
l0041B3C8	dd	0x0001B59C
l0041B3CC	dd	0x0001B580
l0041B3D0	dd	0x0001B56E
l0041B3D4	dd	0x0001B6D8
l0041B3D8	dd	0x0001B6B2
l0041B3DC	dd	0x0001B6A4
l0041B3E0	dd	0x0001B69C
l0041B3E4	dd	0x0001B694
l0041B3E8	dd	0x0001B84C
l0041B3EC	dd	0x0001B686
l0041B3F0	dd	0x0001B726
0041B3F4             00 00 00 00 00 00 00 00 00 00 00 00     ............
0041B400 00 00 00 00 00 00 00 00 00 00 00 00 00 00 00 00 ................
; ...
0041B440 C9 00 43 72 65 61 74 65 46 69 6C 65 57 00 65 04 ..CreateFileW.e.
0041B450 52 65 61 64 46 69 6C 65 00 00 05 06 57 72 69 74 ReadFile....Writ
0041B460 65 46 69 6C 65 00 85 00 43 6C 6F 73 65 48 61 6E eFile...CloseHan
0041B470 64 6C 65 00 5A 02 47 65 74 4C 61 73 74 45 72 72 dle.Z.GetLastErr
0041B480 6F 72 00 00 2C 05 53 65 74 4E 61 6D 65 64 50 69 or..,.SetNamedPi
0041B490 70 65 48 61 6E 64 6C 65 53 74 61 74 65 00 CE 05 peHandleState...
0041B4A0 57 61 69 74 4E 61 6D 65 64 50 69 70 65 57 00 00 WaitNamedPipeW..
0041B4B0 2F 06 6C 73 74 72 6C 65 6E 57 00 00 4B 45 52 4E /.lstrlenW..KERN
0041B4C0 45 4C 33 32 2E 64 6C 6C 00 00 25 00 5F 5F 73 74 EL32.dll..%.__st
0041B4D0 64 5F 74 79 70 65 5F 69 6E 66 6F 5F 64 65 73 74 d_type_info_dest
0041B4E0 72 6F 79 5F 6C 69 73 74 00 00 48 00 6D 65 6D 73 roy_list..H.mems
0041B4F0 65 74 00 00 35 00 5F 65 78 63 65 70 74 5F 68 61 et..5._except_ha
0041B500 6E 64 6C 65 72 34 5F 63 6F 6D 6D 6F 6E 00 2E 00 ndler4_common...
0041B510 5F 5F 76 63 72 74 5F 47 65 74 4D 6F 64 75 6C 65 __vcrt_GetModule
0041B520 46 69 6C 65 4E 61 6D 65 57 00 2F 00 5F 5F 76 63 FileNameW./.__vc
0041B530 72 74 5F 47 65 74 4D 6F 64 75 6C 65 48 61 6E 64 rt_GetModuleHand
0041B540 6C 65 57 00 31 00 5F 5F 76 63 72 74 5F 4C 6F 61 leW.1.__vcrt_Loa
0041B550 64 4C 69 62 72 61 72 79 45 78 57 00 56 43 52 55 dLibraryExW.VCRU
0041B560 4E 54 49 4D 45 31 34 30 44 2E 64 6C 6C 00 45 00 NTIME140D.dll.E.
0041B570 5F 5F 61 63 72 74 5F 69 6F 62 5F 66 75 6E 63 00 __acrt_iob_func.
0041B580 86 00 5F 5F 73 74 64 69 6F 5F 63 6F 6D 6D 6F 6E ..__stdio_common
0041B590 5F 76 66 77 70 72 69 6E 74 66 00 00 8D 04 66 66 _vfwprintf....ff
0041B5A0 6C 75 73 68 00 00 82 00 5F 5F 73 74 64 69 6F 5F lush....__stdio_
0041B5B0 63 6F 6D 6D 6F 6E 5F 76 66 70 72 69 6E 74 66 00 common_vfprintf.
0041B5C0 71 01 5F 67 65 74 63 68 00 00 14 00 5F 43 72 74 q._getch...._Crt
0041B5D0 44 62 67 52 65 70 6F 72 74 00 15 00 5F 43 72 74 DbgReport..._Crt
0041B5E0 44 62 67 52 65 70 6F 72 74 57 00 00 EE 02 5F 73 DbgReportW...._s
0041B5F0 65 68 5F 66 69 6C 74 65 72 5F 65 78 65 00 F1 02 eh_filter_exe...
0041B600 5F 73 65 74 5F 61 70 70 5F 74 79 70 65 00 81 00 _set_app_type...
0041B610 5F 5F 73 65 74 75 73 65 72 6D 61 74 68 65 72 72 __setusermatherr
0041B620 00 00 DD 00 5F 63 6F 6E 66 69 67 75 72 65 5F 77 ...._configure_w
0041B630 69 64 65 5F 61 72 67 76 00 00 98 01 5F 69 6E 69 ide_argv...._ini
0041B640 74 69 61 6C 69 7A 65 5F 77 69 64 65 5F 65 6E 76 tialize_wide_env
0041B650 69 72 6F 6E 6D 65 6E 74 00 00 63 01 5F 67 65 74 ironment..c._get
0041B660 5F 69 6E 69 74 69 61 6C 5F 77 69 64 65 5F 65 6E _initial_wide_en
0041B670 76 69 72 6F 6E 6D 65 6E 74 00 99 01 5F 69 6E 69 vironment..._ini
0041B680 74 74 65 72 6D 00 9A 01 5F 69 6E 69 74 74 65 72 tterm..._initter
0041B690 6D 5F 65 00 75 04 65 78 69 74 00 00 11 01 5F 65 m_e.u.exit...._e
0041B6A0 78 69 74 00 F6 02 5F 73 65 74 5F 66 6D 6F 64 65 xit..._set_fmode
0041B6B0 00 00 6F 00 5F 5F 70 5F 5F 5F 61 72 67 63 00 00 ..o.__p___argc..
0041B6C0 71 00 5F 5F 70 5F 5F 5F 77 61 72 67 76 00 CA 00 q.__p___wargv...
0041B6D0 5F 63 65 78 69 74 00 00 C5 00 5F 63 5F 65 78 69 _cexit...._c_exi
0041B6E0 74 00 E2 02 5F 72 65 67 69 73 74 65 72 5F 74 68 t..._register_th
0041B6F0 72 65 61 64 5F 6C 6F 63 61 6C 5F 65 78 65 5F 61 read_local_exe_a
0041B700 74 65 78 69 74 5F 63 61 6C 6C 62 61 63 6B 00 00 texit_callback..
0041B710 DB 00 5F 63 6F 6E 66 69 67 74 68 72 65 61 64 6C .._configthreadl
0041B720 6F 63 61 6C 65 00 F9 02 5F 73 65 74 5F 6E 65 77 ocale..._set_new
0041B730 5F 6D 6F 64 65 00 73 00 5F 5F 70 5F 5F 63 6F 6D _mode.s.__p__com
0041B740 6D 6F 64 65 00 00 48 05 73 74 72 63 70 79 5F 73 mode..H.strcpy_s
0041B750 00 00 44 05 73 74 72 63 61 74 5F 73 00 00 8E 00 ..D.strcat_s....
0041B760 5F 5F 73 74 64 69 6F 5F 63 6F 6D 6D 6F 6E 5F 76 __stdio_common_v
0041B770 73 70 72 69 6E 74 66 5F 73 00 ED 02 5F 73 65 68 sprintf_s..._seh
0041B780 5F 66 69 6C 74 65 72 5F 64 6C 6C 00 DC 00 5F 63 _filter_dll..._c
0041B790 6F 6E 66 69 67 75 72 65 5F 6E 61 72 72 6F 77 5F onfigure_narrow_
0041B7A0 61 72 67 76 00 00 96 01 5F 69 6E 69 74 69 61 6C argv...._initial
0041B7B0 69 7A 65 5F 6E 61 72 72 6F 77 5F 65 6E 76 69 72 ize_narrow_envir
0041B7C0 6F 6E 6D 65 6E 74 00 00 97 01 5F 69 6E 69 74 69 onment...._initi
0041B7D0 61 6C 69 7A 65 5F 6F 6E 65 78 69 74 5F 74 61 62 alize_onexit_tab
0041B7E0 6C 65 00 00 E1 02 5F 72 65 67 69 73 74 65 72 5F le...._register_
0041B7F0 6F 6E 65 78 69 74 5F 66 75 6E 63 74 69 6F 6E 00 onexit_function.
0041B800 0C 01 5F 65 78 65 63 75 74 65 5F 6F 6E 65 78 69 .._execute_onexi
0041B810 74 5F 74 61 62 6C 65 00 E8 00 5F 63 72 74 5F 61 t_table..._crt_a
0041B820 74 65 78 69 74 00 E7 00 5F 63 72 74 5F 61 74 5F texit..._crt_at_
0041B830 71 75 69 63 6B 5F 65 78 69 74 00 00 E0 00 5F 63 quick_exit...._c
0041B840 6F 6E 74 72 6F 6C 66 70 5F 73 00 00 65 05 74 65 ontrolfp_s..e.te
0041B850 72 6D 69 6E 61 74 65 00 C8 03 5F 77 6D 61 6B 65 rminate..._wmake
0041B860 70 61 74 68 5F 73 00 00 E4 03 5F 77 73 70 6C 69 path_s...._wspli
0041B870 74 70 61 74 68 5F 73 00 7E 05 77 63 73 63 70 79 tpath_s.~.wcscpy
0041B880 5F 73 00 00 75 63 72 74 62 61 73 65 64 2E 64 6C _s..ucrtbased.dl
0041B890 6C 00 76 03 49 73 44 65 62 75 67 67 65 72 50 72 l.v.IsDebuggerPr
0041B8A0 65 73 65 6E 74 00 55 04 52 61 69 73 65 45 78 63 esent.U.RaiseExc
0041B8B0 65 70 74 69 6F 6E 00 00 E2 03 4D 75 6C 74 69 42 eption....MultiB
0041B8C0 79 74 65 54 6F 57 69 64 65 43 68 61 72 00 F1 05 yteToWideChar...
0041B8D0 57 69 64 65 43 68 61 72 54 6F 4D 75 6C 74 69 42 WideCharToMultiB
0041B8E0 79 74 65 00 9D 05 55 6E 68 61 6E 64 6C 65 64 45 yte...UnhandledE
0041B8F0 78 63 65 70 74 69 6F 6E 46 69 6C 74 65 72 00 00 xceptionFilter..
0041B900 5E 05 53 65 74 55 6E 68 61 6E 64 6C 65 64 45 78 ^.SetUnhandledEx
0041B910 63 65 70 74 69 6F 6E 46 69 6C 74 65 72 00 13 02 ceptionFilter...
0041B920 47 65 74 43 75 72 72 65 6E 74 50 72 6F 63 65 73 GetCurrentProces
0041B930 73 00 7C 05 54 65 72 6D 69 6E 61 74 65 50 72 6F s.|.TerminatePro
0041B940 63 65 73 73 00 00 7D 03 49 73 50 72 6F 63 65 73 cess..}.IsProces
0041B950 73 6F 72 46 65 61 74 75 72 65 50 72 65 73 65 6E sorFeaturePresen
0041B960 74 00 40 04 51 75 65 72 79 50 65 72 66 6F 72 6D t.@.QueryPerform
0041B970 61 6E 63 65 43 6F 75 6E 74 65 72 00 14 02 47 65 anceCounter...Ge
0041B980 74 43 75 72 72 65 6E 74 50 72 6F 63 65 73 73 49 tCurrentProcessI
0041B990 64 00 18 02 47 65 74 43 75 72 72 65 6E 74 54 68 d...GetCurrentTh
0041B9A0 72 65 61 64 49 64 00 00 E2 02 47 65 74 53 79 73 readId....GetSys
0041B9B0 74 65 6D 54 69 6D 65 41 73 46 69 6C 65 54 69 6D temTimeAsFileTim
0041B9C0 65 00 5A 03 49 6E 69 74 69 61 6C 69 7A 65 53 4C e.Z.InitializeSL
0041B9D0 69 73 74 48 65 61 64 00 C9 02 47 65 74 53 74 61 istHead...GetSta
0041B9E0 72 74 75 70 49 6E 66 6F 57 00 71 02 47 65 74 4D rtupInfoW.q.GetM
0041B9F0 6F 64 75 6C 65 48 61 6E 64 6C 65 57 00 00 3D 03 oduleHandleW..=.
0041BA00 48 65 61 70 41 6C 6C 6F 63 00 41 03 48 65 61 70 HeapAlloc.A.Heap
0041BA10 46 72 65 65 00 00 AD 02 47 65 74 50 72 6F 63 65 Free....GetProce
0041BA20 73 73 48 65 61 70 00 00 BE 05 56 69 72 74 75 61 ssHeap....Virtua
0041BA30 6C 51 75 65 72 79 00 00 A7 01 46 72 65 65 4C 69 lQuery....FreeLi
0041BA40 62 72 61 72 79 00 A7 02 47 65 74 50 72 6F 63 41 brary...GetProcA
0041BA50 64 64 72 65 73 73 00 00 00 00 00 00 00 00 00 00 ddress..........
0041BA60 00 00 00 00 00 00 00 00 00 00 00 00 00 00 00 00 ................
; ...
;;; Segment .00cfg (0041C000)
0041C000 CB 12 41 00 00 00 00 00 00 00 00 00 00 00 00 00 ..A.............
0041C010 00 00 00 00 00 00 00 00 00 00 00 00 00 00 00 00 ................
; ...
;;; Segment .rsrc (0041D000)
0041D000 00 00 00 00 00 00 00 00 00 00 00 00 00 00 01 00 ................
0041D010 18 00 00 00 18 00 00 80 00 00 00 00 00 00 00 00 ................
0041D020 00 00 00 00 00 00 01 00 01 00 00 00 30 00 00 80 ............0...
0041D030 00 00 00 00 00 00 00 00 00 00 00 00 00 00 01 00 ................
0041D040 09 04 00 00 48 00 00 00 70 D1 01 00 7D 01 00 00 ....H...p...}...
0041D050 00 00 00 00 00 00 00 00 00 00 00 00 00 00 00 00 ................
; ...
0041D170 3C 3F 78 6D 6C 20 76 65 72 73 69 6F 6E 3D 27 31 <?xml version='1
0041D180 2E 30 27 20 65 6E 63 6F 64 69 6E 67 3D 27 55 54 .0' encoding='UT
0041D190 46 2D 38 27 20 73 74 61 6E 64 61 6C 6F 6E 65 3D F-8' standalone=
0041D1A0 27 79 65 73 27 3F 3E 0D 0A 3C 61 73 73 65 6D 62 'yes'?>..<assemb
0041D1B0 6C 79 20 78 6D 6C 6E 73 3D 27 75 72 6E 3A 73 63 ly xmlns='urn:sc
0041D1C0 68 65 6D 61 73 2D 6D 69 63 72 6F 73 6F 66 74 2D hemas-microsoft-
0041D1D0 63 6F 6D 3A 61 73 6D 2E 76 31 27 20 6D 61 6E 69 com:asm.v1' mani
0041D1E0 66 65 73 74 56 65 72 73 69 6F 6E 3D 27 31 2E 30 festVersion='1.0
0041D1F0 27 3E 0D 0A 20 20 3C 74 72 75 73 74 49 6E 66 6F '>..  <trustInfo
0041D200 20 78 6D 6C 6E 73 3D 22 75 72 6E 3A 73 63 68 65  xmlns="urn:sche
0041D210 6D 61 73 2D 6D 69 63 72 6F 73 6F 66 74 2D 63 6F mas-microsoft-co
0041D220 6D 3A 61 73 6D 2E 76 33 22 3E 0D 0A 20 20 20 20 m:asm.v3">..    
0041D230 3C 73 65 63 75 72 69 74 79 3E 0D 0A 20 20 20 20 <security>..    
0041D240 20 20 3C 72 65 71 75 65 73 74 65 64 50 72 69 76   <requestedPriv
0041D250 69 6C 65 67 65 73 3E 0D 0A 20 20 20 20 20 20 20 ileges>..       
0041D260 20 3C 72 65 71 75 65 73 74 65 64 45 78 65 63 75  <requestedExecu
0041D270 74 69 6F 6E 4C 65 76 65 6C 20 6C 65 76 65 6C 3D tionLevel level=
0041D280 27 61 73 49 6E 76 6F 6B 65 72 27 20 75 69 41 63 'asInvoker' uiAc
0041D290 63 65 73 73 3D 27 66 61 6C 73 65 27 20 2F 3E 0D cess='false' />.
0041D2A0 0A 20 20 20 20 20 20 3C 2F 72 65 71 75 65 73 74 .      </request
0041D2B0 65 64 50 72 69 76 69 6C 65 67 65 73 3E 0D 0A 20 edPrivileges>.. 
0041D2C0 20 20 20 3C 2F 73 65 63 75 72 69 74 79 3E 0D 0A    </security>..
0041D2D0 20 20 3C 2F 74 72 75 73 74 49 6E 66 6F 3E 0D 0A   </trustInfo>..
0041D2E0 3C 2F 61 73 73 65 6D 62 6C 79 3E 0D 0A 00 00 00 </assembly>.....
0041D2F0 00 00 00 00 00 00 00 00 00 00 00 00 00 00 00 00 ................
; ...
;;; Segment .reloc (0041E000)
0041E000 00 10 01 00 7C 00 00 00 0F 38 6E 38 EE 38 69 39 ....|....8n8.8i9
0041E010 DF 39 EB 39 FF 39 41 3A 5E 3A 74 3A 81 3A 93 3A .9.9.9A:^:t:.:.:
0041E020 A6 3A CC 3A DC 3A EE 3A 01 3B 39 3B 57 3B 64 3B .:.:.:.:.;9;W;d;
0041E030 76 3B 89 3B A7 3B C8 3B DA 3B ED 3B 17 3C 44 3C v;.;.;.;.;.;.<D<
0041E040 71 3C 8F 3C 9C 3C AE 3C C1 3C D8 3C EA 3C FD 3C q<.<.<.<.<.<.<.<
0041E050 28 3D 46 3D 62 3D 74 3D 87 3D AF 3D BC 3D CE 3D (=F=b=t=.=.=.=.=
0041E060 E1 3D F5 3D 07 3E 1A 3E 2C 3E 3F 3E 52 3E 80 3E .=.=.>.>,>?>R>.>
0041E070 8C 3E 98 3E A4 3E B0 3E E9 3F 00 00 00 20 01 00 .>.>.>.>.?... ..
0041E080 98 00 00 00 3F 30 45 30 4B 30 51 30 57 30 5D 30 ....?0E0K0Q0W0]0
0041E090 63 30 69 30 72 32 91 32 A1 32 B2 32 C5 32 42 33 c0i0r2.2.2.2.2B3
0041E0A0 6D 33 36 34 3B 34 4D 34 90 34 A2 34 AB 34 B4 34 m364;4M4.4.4.4.4
0041E0B0 B9 34 E0 34 E5 34 F3 34 96 37 9B 37 AD 37 F0 37 .4.4.4.4.7.7.7.7
0041E0C0 56 38 5B 38 6D 38 C2 38 3A 39 4D 39 65 39 9F 39 V8[8m8.8:9M9e9.9
0041E0D0 A8 39 B4 39 BF 39 C5 39 CB 39 D0 39 D5 39 5E 3A .9.9.9.9.9.9.9^:
0041E0E0 65 3A 80 3A CA 3A DE 3A 00 3B 28 3B 49 3B DB 3B e:.:.:.:.;(;I;.;
0041E0F0 6A 3C C3 3C E2 3C F1 3C 11 3D 43 3D 8E 3D BF 3D j<.<.<.<.=C=.=.=
0041E100 D6 3D F4 3D 0B 3E 2E 3E EA 3E FA 3E 1B 3F 43 3F .=.=.>.>.>.>.?C?
0041E110 64 3F 00 00 00 30 01 00 08 01 00 00 37 30 41 30 d?...0......70A0
0041E120 4C 30 53 30 8C 30 92 30 98 30 9E 30 A4 30 AA 30 L0S0.0.0.0.0.0.0
0041E130 B1 30 B8 30 BF 30 C6 30 CD 30 D4 30 DB 30 E3 30 .0.0.0.0.0.0.0.0
0041E140 EB 30 F3 30 FF 30 08 31 0D 31 13 31 1D 31 27 31 .0.0.0.1.1.1.1'1
0041E150 39 31 4B 31 5D 31 66 31 EA 31 F0 31 F6 31 FC 31 91K1]1f1.1.1.1.1
0041E160 02 32 08 32 0F 32 16 32 1D 32 24 32 2B 32 32 32 .2.2.2.2.2$2+222
0041E170 39 32 41 32 49 32 51 32 5C 32 61 32 67 32 71 32 92A2I2Q2\2a2g2q2
0041E180 7B 32 90 32 95 32 FA 32 00 33 06 33 0C 33 12 33 {2.2.2.2.3.3.3.3
0041E190 18 33 1F 33 26 33 2D 33 34 33 3B 33 42 33 49 33 .3.3&3-343;3B3I3
0041E1A0 51 33 59 33 61 33 6C 33 71 33 77 33 81 33 B3 33 Q3Y3a3l3q3w3.3.3
0041E1B0 C4 33 F1 33 F8 33 51 34 61 34 7E 34 A4 34 AD 34 .3.3.3Q4a4~4.4.4
0041E1C0 B3 34 D4 34 DD 34 E3 34 0E 35 18 35 34 35 47 35 .4.4.4.4.5.545G5
0041E1D0 64 35 87 35 52 37 CD 38 2B 39 89 39 BB 39 D3 39 d5.5R7.8+9.9.9.9
0041E1E0 0D 3A 16 3A 1E 3A 39 3A 42 3A 4A 3A 50 3A A6 3A .:.:.:9:B:J:P:.:
0041E1F0 AB 3A BD 3A DC 3A 3B 3C 56 3C A7 3C E8 3C 37 3D .:.:.:;<V<.<.<7=
0041E200 68 3D EA 3D FF 3D 0B 3E 1B 3E 66 3E 71 3E 7E 3E h=.=.=.>.>f>q>~>
0041E210 86 3E C7 3E D2 3E 64 3F 6A 3F 84 3F 00 40 01 00 .>.>.>d?j?.?.@..
0041E220 A0 00 00 00 04 30 66 30 94 30 A4 30 8C 31 B8 31 .....0f0.0.0.1.1
0041E230 C2 31 5C 32 AA 32 54 33 5A 33 F5 33 12 34 19 34 .1\2.2T3Z3.3.4.4
0041E240 34 34 52 34 59 34 74 34 9C 34 C4 34 C9 34 EA 34 44R4Y4t4.4.4.4.4
0041E250 F5 34 02 35 15 35 7D 35 A5 35 B7 35 7A 36 8C 36 .4.5.5}5.5.5z6.6
0041E260 A5 36 B9 36 C5 36 EA 36 F1 36 0D 37 14 37 1F 37 .6.6.6.6.6.7.7.7
0041E270 26 37 42 37 59 37 94 37 BF 37 29 38 35 38 41 38 &7B7Y7.7.7)858A8
0041E280 4D 38 59 38 65 38 71 38 7D 38 8A 38 B4 38 9A 39 M8Y8e8q8}8.8.8.9
0041E290 F3 39 0D 3A C5 3A 3E 3B 4A 3B 57 3B 61 3B 69 3B .9.:.:>;J;W;a;i;
0041E2A0 6E 3B 75 3B D9 3B CA 3C D1 3C 40 3D 47 3D C7 3E n;u;.;.<.<@=G=.>
0041E2B0 D4 3E DD 3E E5 3E 12 3F 1C 3F 25 3F 00 50 01 00 .>.>.>.?.?%?.P..
0041E2C0 B4 00 00 00 2E 30 37 30 B3 30 BB 30 D9 30 E2 30 .....070.0.0.0.0
0041E2D0 EA 30 41 31 4B 31 54 31 6A 31 74 31 7D 31 56 32 .0A1K1T1j1t1}1V2
0041E2E0 D5 32 E2 32 0C 33 12 33 18 33 1E 33 24 33 2A 33 .2.2.3.3.3.3$3*3
0041E2F0 30 33 36 33 3C 33 42 33 48 33 4E 33 54 33 5A 33 0363<3B3H3N3T3Z3
0041E300 60 33 66 33 6C 33 72 33 78 33 7E 33 84 33 8A 33 `3f3l3r3x3~3.3.3
0041E310 90 33 96 33 9C 33 A2 33 A8 33 AE 33 B4 33 BA 33 .3.3.3.3.3.3.3.3
0041E320 C0 33 C6 33 CC 33 D2 33 D8 33 DE 33 E4 33 EA 33 .3.3.3.3.3.3.3.3
0041E330 F0 33 F6 33 FC 33 02 34 08 34 0E 34 14 34 1A 34 .3.3.3.4.4.4.4.4
0041E340 20 34 26 34 2C 34 32 34 38 34 3E 34 44 34 4A 34  4&4,42484>4D4J4
0041E350 50 34 56 34 5C 34 62 34 68 34 6E 34 74 34 7A 34 P4V4\4b4h4n4t4z4
0041E360 80 34 86 34 8C 34 92 34 98 34 9E 34 A4 34 AA 34 .4.4.4.4.4.4.4.4
0041E370 00 70 01 00 1C 00 00 00 04 31 10 34 14 35 2C 3E .p.......1.4.5,>
0041E380 30 3E 34 3E 38 3E 3C 3E 40 3E 00 00 00 80 01 00 0>4>8><>@>......
0041E390 20 00 00 00 E8 34 EC 34 F4 34 F8 34 FC 34 00 35  ....4.4.4.4.4.5
0041E3A0 04 35 54 38 60 38 A4 3C B0 3F 00 00 00 90 01 00 .5T8`8.<.?......
0041E3B0 18 00 00 00 CC 31 D0 31 EC 31 F0 31 0C 32 10 32 .....1.1.1.1.2.2
0041E3C0 2C 32 30 32 00 C0 01 00 0C 00 00 00 00 30 00 00 ,202.........0..
0041E3D0 00 00 00 00 00 00 00 00 00 00 00 00 00 00 00 00 ................
; ...
